
./cmake-build-release/woody_woodpacker:     file format elf64-x86-64


Disassembly of section .init:

0000000000401000 <_init>:
  401000:	f3 0f 1e fa          	endbr64 
  401004:	48 83 ec 08          	sub    rsp,0x8
  401008:	48 8b 05 e9 3f 00 00 	mov    rax,QWORD PTR [rip+0x3fe9]        # 404ff8 <__gmon_start__@Base>
  40100f:	48 85 c0             	test   rax,rax
  401012:	74 02                	je     401016 <_init+0x16>
  401014:	ff d0                	call   rax
  401016:	48 83 c4 08          	add    rsp,0x8
  40101a:	c3                   	ret    

Disassembly of section .plt:

0000000000401020 <free@plt-0x10>:
  401020:	ff 35 e2 3f 00 00    	push   QWORD PTR [rip+0x3fe2]        # 405008 <_GLOBAL_OFFSET_TABLE_+0x8>
  401026:	ff 25 e4 3f 00 00    	jmp    QWORD PTR [rip+0x3fe4]        # 405010 <_GLOBAL_OFFSET_TABLE_+0x10>
  40102c:	0f 1f 40 00          	nop    DWORD PTR [rax+0x0]

0000000000401030 <free@plt>:
  401030:	ff 25 e2 3f 00 00    	jmp    QWORD PTR [rip+0x3fe2]        # 405018 <free@GLIBC_2.2.5>
  401036:	68 00 00 00 00       	push   0x0
  40103b:	e9 e0 ff ff ff       	jmp    401020 <_init+0x20>

0000000000401040 <putchar@plt>:
  401040:	ff 25 da 3f 00 00    	jmp    QWORD PTR [rip+0x3fda]        # 405020 <putchar@GLIBC_2.2.5>
  401046:	68 01 00 00 00       	push   0x1
  40104b:	e9 d0 ff ff ff       	jmp    401020 <_init+0x20>

0000000000401050 <puts@plt>:
  401050:	ff 25 d2 3f 00 00    	jmp    QWORD PTR [rip+0x3fd2]        # 405028 <puts@GLIBC_2.2.5>
  401056:	68 02 00 00 00       	push   0x2
  40105b:	e9 c0 ff ff ff       	jmp    401020 <_init+0x20>

0000000000401060 <write@plt>:
  401060:	ff 25 ca 3f 00 00    	jmp    QWORD PTR [rip+0x3fca]        # 405030 <write@GLIBC_2.2.5>
  401066:	68 03 00 00 00       	push   0x3
  40106b:	e9 b0 ff ff ff       	jmp    401020 <_init+0x20>

0000000000401070 <printf@plt>:
  401070:	ff 25 c2 3f 00 00    	jmp    QWORD PTR [rip+0x3fc2]        # 405038 <printf@GLIBC_2.2.5>
  401076:	68 04 00 00 00       	push   0x4
  40107b:	e9 a0 ff ff ff       	jmp    401020 <_init+0x20>

0000000000401080 <close@plt>:
  401080:	ff 25 ba 3f 00 00    	jmp    QWORD PTR [rip+0x3fba]        # 405040 <close@GLIBC_2.2.5>
  401086:	68 05 00 00 00       	push   0x5
  40108b:	e9 90 ff ff ff       	jmp    401020 <_init+0x20>

0000000000401090 <dprintf@plt>:
  401090:	ff 25 b2 3f 00 00    	jmp    QWORD PTR [rip+0x3fb2]        # 405048 <dprintf@GLIBC_2.2.5>
  401096:	68 06 00 00 00       	push   0x6
  40109b:	e9 80 ff ff ff       	jmp    401020 <_init+0x20>

00000000004010a0 <read@plt>:
  4010a0:	ff 25 aa 3f 00 00    	jmp    QWORD PTR [rip+0x3faa]        # 405050 <read@GLIBC_2.2.5>
  4010a6:	68 07 00 00 00       	push   0x7
  4010ab:	e9 70 ff ff ff       	jmp    401020 <_init+0x20>

00000000004010b0 <calloc@plt>:
  4010b0:	ff 25 a2 3f 00 00    	jmp    QWORD PTR [rip+0x3fa2]        # 405058 <calloc@GLIBC_2.2.5>
  4010b6:	68 08 00 00 00       	push   0x8
  4010bb:	e9 60 ff ff ff       	jmp    401020 <_init+0x20>

00000000004010c0 <memcpy@plt>:
  4010c0:	ff 25 9a 3f 00 00    	jmp    QWORD PTR [rip+0x3f9a]        # 405060 <memcpy@GLIBC_2.14>
  4010c6:	68 09 00 00 00       	push   0x9
  4010cb:	e9 50 ff ff ff       	jmp    401020 <_init+0x20>

00000000004010d0 <malloc@plt>:
  4010d0:	ff 25 92 3f 00 00    	jmp    QWORD PTR [rip+0x3f92]        # 405068 <malloc@GLIBC_2.2.5>
  4010d6:	68 0a 00 00 00       	push   0xa
  4010db:	e9 40 ff ff ff       	jmp    401020 <_init+0x20>

00000000004010e0 <realloc@plt>:
  4010e0:	ff 25 8a 3f 00 00    	jmp    QWORD PTR [rip+0x3f8a]        # 405070 <realloc@GLIBC_2.2.5>
  4010e6:	68 0b 00 00 00       	push   0xb
  4010eb:	e9 30 ff ff ff       	jmp    401020 <_init+0x20>

00000000004010f0 <open@plt>:
  4010f0:	ff 25 82 3f 00 00    	jmp    QWORD PTR [rip+0x3f82]        # 405078 <open@GLIBC_2.2.5>
  4010f6:	68 0c 00 00 00       	push   0xc
  4010fb:	e9 20 ff ff ff       	jmp    401020 <_init+0x20>

0000000000401100 <perror@plt>:
  401100:	ff 25 7a 3f 00 00    	jmp    QWORD PTR [rip+0x3f7a]        # 405080 <perror@GLIBC_2.2.5>
  401106:	68 0d 00 00 00       	push   0xd
  40110b:	e9 10 ff ff ff       	jmp    401020 <_init+0x20>

Disassembly of section .text:

0000000000401110 <_start>:
  401110:	f3 0f 1e fa          	endbr64 
  401114:	31 ed                	xor    ebp,ebp
  401116:	49 89 d1             	mov    r9,rdx
  401119:	5e                   	pop    rsi
  40111a:	48 89 e2             	mov    rdx,rsp
  40111d:	48 83 e4 f0          	and    rsp,0xfffffffffffffff0
  401121:	50                   	push   rax
  401122:	54                   	push   rsp
  401123:	45 31 c0             	xor    r8d,r8d
  401126:	31 c9                	xor    ecx,ecx
  401128:	48 c7 c7 d0 12 40 00 	mov    rdi,0x4012d0
  40112f:	ff 15 bb 3e 00 00    	call   QWORD PTR [rip+0x3ebb]        # 404ff0 <__libc_start_main@GLIBC_2.34>
  401135:	f4                   	hlt    
  401136:	66 2e 0f 1f 84 00 00 	cs nop WORD PTR [rax+rax*1+0x0]
  40113d:	00 00 00 

0000000000401140 <_dl_relocate_static_pie>:
  401140:	f3 0f 1e fa          	endbr64 
  401144:	c3                   	ret    
  401145:	66 2e 0f 1f 84 00 00 	cs nop WORD PTR [rax+rax*1+0x0]
  40114c:	00 00 00 
  40114f:	90                   	nop

0000000000401150 <deregister_tm_clones>:
  401150:	b8 38 51 40 00       	mov    eax,0x405138
  401155:	48 3d 38 51 40 00    	cmp    rax,0x405138
  40115b:	74 13                	je     401170 <deregister_tm_clones+0x20>
  40115d:	b8 00 00 00 00       	mov    eax,0x0
  401162:	48 85 c0             	test   rax,rax
  401165:	74 09                	je     401170 <deregister_tm_clones+0x20>
  401167:	bf 38 51 40 00       	mov    edi,0x405138
  40116c:	ff e0                	jmp    rax
  40116e:	66 90                	xchg   ax,ax
  401170:	c3                   	ret    
  401171:	66 66 2e 0f 1f 84 00 	data16 cs nop WORD PTR [rax+rax*1+0x0]
  401178:	00 00 00 00 
  40117c:	0f 1f 40 00          	nop    DWORD PTR [rax+0x0]

0000000000401180 <register_tm_clones>:
  401180:	be 38 51 40 00       	mov    esi,0x405138
  401185:	48 81 ee 38 51 40 00 	sub    rsi,0x405138
  40118c:	48 89 f0             	mov    rax,rsi
  40118f:	48 c1 ee 3f          	shr    rsi,0x3f
  401193:	48 c1 f8 03          	sar    rax,0x3
  401197:	48 01 c6             	add    rsi,rax
  40119a:	48 d1 fe             	sar    rsi,1
  40119d:	74 11                	je     4011b0 <register_tm_clones+0x30>
  40119f:	b8 00 00 00 00       	mov    eax,0x0
  4011a4:	48 85 c0             	test   rax,rax
  4011a7:	74 07                	je     4011b0 <register_tm_clones+0x30>
  4011a9:	bf 38 51 40 00       	mov    edi,0x405138
  4011ae:	ff e0                	jmp    rax
  4011b0:	c3                   	ret    
  4011b1:	66 66 2e 0f 1f 84 00 	data16 cs nop WORD PTR [rax+rax*1+0x0]
  4011b8:	00 00 00 00 
  4011bc:	0f 1f 40 00          	nop    DWORD PTR [rax+0x0]

00000000004011c0 <__do_global_dtors_aux>:
  4011c0:	f3 0f 1e fa          	endbr64 
  4011c4:	80 3d 69 3f 00 00 00 	cmp    BYTE PTR [rip+0x3f69],0x0        # 405134 <completed.0>
  4011cb:	75 13                	jne    4011e0 <__do_global_dtors_aux+0x20>
  4011cd:	55                   	push   rbp
  4011ce:	48 89 e5             	mov    rbp,rsp
  4011d1:	e8 7a ff ff ff       	call   401150 <deregister_tm_clones>
  4011d6:	c6 05 57 3f 00 00 01 	mov    BYTE PTR [rip+0x3f57],0x1        # 405134 <completed.0>
  4011dd:	5d                   	pop    rbp
  4011de:	c3                   	ret    
  4011df:	90                   	nop
  4011e0:	c3                   	ret    
  4011e1:	66 66 2e 0f 1f 84 00 	data16 cs nop WORD PTR [rax+rax*1+0x0]
  4011e8:	00 00 00 00 
  4011ec:	0f 1f 40 00          	nop    DWORD PTR [rax+0x0]

00000000004011f0 <frame_dummy>:
  4011f0:	f3 0f 1e fa          	endbr64 
  4011f4:	eb 8a                	jmp    401180 <register_tm_clones>
  4011f6:	66 2e 0f 1f 84 00 00 	cs nop WORD PTR [rax+rax*1+0x0]
  4011fd:	00 00 00 

0000000000401200 <init>:
  401200:	41 56                	push   r14
  401202:	53                   	push   rbx
  401203:	50                   	push   rax
  401204:	49 89 fe             	mov    r14,rdi
  401207:	48 8b 7e 08          	mov    rdi,QWORD PTR [rsi+0x8]
  40120b:	31 f6                	xor    esi,esi
  40120d:	31 c0                	xor    eax,eax
  40120f:	e8 dc fe ff ff       	call   4010f0 <open@plt>
  401214:	83 f8 ff             	cmp    eax,0xffffffff
  401217:	74 2b                	je     401244 <init+0x44>
  401219:	89 c3                	mov    ebx,eax
  40121b:	49 8d 56 08          	lea    rdx,[r14+0x8]
  40121f:	89 c7                	mov    edi,eax
  401221:	4c 89 f6             	mov    rsi,r14
  401224:	e8 07 08 00 00       	call   401a30 <read_file>
  401229:	85 c0                	test   eax,eax
  40122b:	74 2e                	je     40125b <init+0x5b>
  40122d:	bf 09 30 40 00       	mov    edi,0x403009
  401232:	e8 19 fe ff ff       	call   401050 <puts@plt>
  401237:	b8 03 00 00 00       	mov    eax,0x3
  40123c:	48 83 c4 08          	add    rsp,0x8
  401240:	5b                   	pop    rbx
  401241:	41 5e                	pop    r14
  401243:	c3                   	ret    
  401244:	bf 1c 30 40 00       	mov    edi,0x40301c
  401249:	e8 02 fe ff ff       	call   401050 <puts@plt>
  40124e:	b8 02 00 00 00       	mov    eax,0x2
  401253:	48 83 c4 08          	add    rsp,0x8
  401257:	5b                   	pop    rbx
  401258:	41 5e                	pop    r14
  40125a:	c3                   	ret    
  40125b:	89 df                	mov    edi,ebx
  40125d:	e8 1e fe ff ff       	call   401080 <close@plt>
  401262:	31 c0                	xor    eax,eax
  401264:	48 83 c4 08          	add    rsp,0x8
  401268:	5b                   	pop    rbx
  401269:	41 5e                	pop    r14
  40126b:	c3                   	ret    
  40126c:	0f 1f 40 00          	nop    DWORD PTR [rax+0x0]

0000000000401270 <check_elf_header>:
  401270:	50                   	push   rax
  401271:	48 89 f8             	mov    rax,rdi
  401274:	81 3f 7f 45 4c 46    	cmp    DWORD PTR [rdi],0x464c457f
  40127a:	bf 90 30 40 00       	mov    edi,0x403090
  40127f:	75 35                	jne    4012b6 <check_elf_header+0x46>
  401281:	bf 7e 30 40 00       	mov    edi,0x40307e
  401286:	83 78 14 01          	cmp    DWORD PTR [rax+0x14],0x1
  40128a:	75 2a                	jne    4012b6 <check_elf_header+0x46>
  40128c:	bf 67 30 40 00       	mov    edi,0x403067
  401291:	80 78 04 02          	cmp    BYTE PTR [rax+0x4],0x2
  401295:	75 1f                	jne    4012b6 <check_elf_header+0x46>
  401297:	bf 4a 30 40 00       	mov    edi,0x40304a
  40129c:	80 78 05 01          	cmp    BYTE PTR [rax+0x5],0x1
  4012a0:	75 14                	jne    4012b6 <check_elf_header+0x46>
  4012a2:	0f b7 48 10          	movzx  ecx,WORD PTR [rax+0x10]
  4012a6:	83 e1 fe             	and    ecx,0xfffffffe
  4012a9:	bf 2f 30 40 00       	mov    edi,0x40302f
  4012ae:	31 c0                	xor    eax,eax
  4012b0:	66 83 f9 02          	cmp    cx,0x2
  4012b4:	74 0a                	je     4012c0 <check_elf_header+0x50>
  4012b6:	e8 95 fd ff ff       	call   401050 <puts@plt>
  4012bb:	b8 01 00 00 00       	mov    eax,0x1
  4012c0:	59                   	pop    rcx
  4012c1:	c3                   	ret    
  4012c2:	66 2e 0f 1f 84 00 00 	cs nop WORD PTR [rax+rax*1+0x0]
  4012c9:	00 00 00 
  4012cc:	0f 1f 40 00          	nop    DWORD PTR [rax+0x0]

00000000004012d0 <main>:
  4012d0:	53                   	push   rbx
  4012d1:	48 83 ec 40          	sub    rsp,0x40
  4012d5:	0f 57 c0             	xorps  xmm0,xmm0
  4012d8:	0f 29 44 24 30       	movaps XMMWORD PTR [rsp+0x30],xmm0
  4012dd:	0f 29 44 24 20       	movaps XMMWORD PTR [rsp+0x20],xmm0
  4012e2:	0f 29 44 24 10       	movaps XMMWORD PTR [rsp+0x10],xmm0
  4012e7:	0f 29 04 24          	movaps XMMWORD PTR [rsp],xmm0
  4012eb:	83 ff 02             	cmp    edi,0x2
  4012ee:	75 2e                	jne    40131e <main+0x4e>
  4012f0:	48 8b 7e 08          	mov    rdi,QWORD PTR [rsi+0x8]
  4012f4:	31 f6                	xor    esi,esi
  4012f6:	31 c0                	xor    eax,eax
  4012f8:	e8 f3 fd ff ff       	call   4010f0 <open@plt>
  4012fd:	83 f8 ff             	cmp    eax,0xffffffff
  401300:	74 23                	je     401325 <main+0x55>
  401302:	89 c3                	mov    ebx,eax
  401304:	48 8d 54 24 08       	lea    rdx,[rsp+0x8]
  401309:	48 89 e6             	mov    rsi,rsp
  40130c:	89 c7                	mov    edi,eax
  40130e:	e8 1d 07 00 00       	call   401a30 <read_file>
  401313:	85 c0                	test   eax,eax
  401315:	74 2d                	je     401344 <main+0x74>
  401317:	bf 09 30 40 00       	mov    edi,0x403009
  40131c:	eb 0c                	jmp    40132a <main+0x5a>
  40131e:	bf 21 31 40 00       	mov    edi,0x403121
  401323:	eb 0f                	jmp    401334 <main+0x64>
  401325:	bf 1c 30 40 00       	mov    edi,0x40301c
  40132a:	e8 21 fd ff ff       	call   401050 <puts@plt>
  40132f:	bf 16 31 40 00       	mov    edi,0x403116
  401334:	e8 17 fd ff ff       	call   401050 <puts@plt>
  401339:	b8 01 00 00 00       	mov    eax,0x1
  40133e:	48 83 c4 40          	add    rsp,0x40
  401342:	5b                   	pop    rbx
  401343:	c3                   	ret    
  401344:	89 df                	mov    edi,ebx
  401346:	e8 35 fd ff ff       	call   401080 <close@plt>
  40134b:	48 8b 3c 24          	mov    rdi,QWORD PTR [rsp]
  40134f:	48 89 7c 24 30       	mov    QWORD PTR [rsp+0x30],rdi
  401354:	e8 17 ff ff ff       	call   401270 <check_elf_header>
  401359:	85 c0                	test   eax,eax
  40135b:	74 07                	je     401364 <main+0x94>
  40135d:	bf fc 30 40 00       	mov    edi,0x4030fc
  401362:	eb d0                	jmp    401334 <main+0x64>
  401364:	48 89 e7             	mov    rdi,rsp
  401367:	e8 34 05 00 00       	call   4018a0 <parse_program_headers>
  40136c:	48 8b 7c 24 38       	mov    rdi,QWORD PTR [rsp+0x38]
  401371:	be b0 19 40 00       	mov    esi,0x4019b0
  401376:	e8 e5 05 00 00       	call   401960 <get_segment>
  40137b:	48 85 c0             	test   rax,rax
  40137e:	74 13                	je     401393 <main+0xc3>
  401380:	48 89 e7             	mov    rdi,rsp
  401383:	e8 18 01 00 00       	call   4014a0 <encryption>
  401388:	85 c0                	test   eax,eax
  40138a:	74 0e                	je     40139a <main+0xca>
  40138c:	bf d5 30 40 00       	mov    edi,0x4030d5
  401391:	eb a1                	jmp    401334 <main+0x64>
  401393:	bf e6 30 40 00       	mov    edi,0x4030e6
  401398:	eb 9a                	jmp    401334 <main+0x64>
  40139a:	48 89 e7             	mov    rdi,rsp
  40139d:	e8 9e 0d 00 00       	call   402140 <craft_payload>
  4013a2:	85 c0                	test   eax,eax
  4013a4:	74 07                	je     4013ad <main+0xdd>
  4013a6:	bf be 30 40 00       	mov    edi,0x4030be
  4013ab:	eb 87                	jmp    401334 <main+0x64>
  4013ad:	48 89 e3             	mov    rbx,rsp
  4013b0:	48 89 df             	mov    rdi,rbx
  4013b3:	e8 08 03 00 00       	call   4016c0 <find_code_cave>
  4013b8:	48 89 df             	mov    rdi,rbx
  4013bb:	e8 10 06 00 00       	call   4019d0 <save_new_file>
  4013c0:	85 c0                	test   eax,eax
  4013c2:	74 0a                	je     4013ce <main+0xfe>
  4013c4:	bf a8 30 40 00       	mov    edi,0x4030a8
  4013c9:	e9 66 ff ff ff       	jmp    401334 <main+0x64>
  4013ce:	31 c0                	xor    eax,eax
  4013d0:	48 83 c4 40          	add    rsp,0x40
  4013d4:	5b                   	pop    rbx
  4013d5:	c3                   	ret    
  4013d6:	66 2e 0f 1f 84 00 00 	cs nop WORD PTR [rax+rax*1+0x0]
  4013dd:	00 00 00 

00000000004013e0 <xor_encrypt>:
  4013e0:	48 85 f6             	test   rsi,rsi
  4013e3:	0f 84 ac 00 00 00    	je     401495 <xor_encrypt+0xb5>
  4013e9:	49 89 d0             	mov    r8,rdx
  4013ec:	48 83 fe 01          	cmp    rsi,0x1
  4013f0:	75 23                	jne    401415 <xor_encrypt+0x35>
  4013f2:	45 31 c9             	xor    r9d,r9d
  4013f5:	40 f6 c6 01          	test   sil,0x1
  4013f9:	0f 84 96 00 00 00    	je     401495 <xor_encrypt+0xb5>
  4013ff:	4c 89 c8             	mov    rax,r9
  401402:	48 09 c8             	or     rax,rcx
  401405:	48 c1 e8 20          	shr    rax,0x20
  401409:	74 7b                	je     401486 <xor_encrypt+0xa6>
  40140b:	4c 89 c8             	mov    rax,r9
  40140e:	31 d2                	xor    edx,edx
  401410:	48 f7 f1             	div    rcx
  401413:	eb 78                	jmp    40148d <xor_encrypt+0xad>
  401415:	49 89 f2             	mov    r10,rsi
  401418:	49 83 e2 fe          	and    r10,0xfffffffffffffffe
  40141c:	45 31 c9             	xor    r9d,r9d
  40141f:	eb 27                	jmp    401448 <xor_encrypt+0x68>
  401421:	66 2e 0f 1f 84 00 00 	cs nop WORD PTR [rax+rax*1+0x0]
  401428:	00 00 00 
  40142b:	0f 1f 44 00 00       	nop    DWORD PTR [rax+rax*1+0x0]
  401430:	31 d2                	xor    edx,edx
  401432:	48 f7 f1             	div    rcx
  401435:	41 0f b6 04 10       	movzx  eax,BYTE PTR [r8+rdx*1]
  40143a:	42 30 44 0f 01       	xor    BYTE PTR [rdi+r9*1+0x1],al
  40143f:	49 83 c1 02          	add    r9,0x2
  401443:	4d 39 ca             	cmp    r10,r9
  401446:	74 ad                	je     4013f5 <xor_encrypt+0x15>
  401448:	4c 89 c8             	mov    rax,r9
  40144b:	48 09 c8             	or     rax,rcx
  40144e:	48 c1 e8 20          	shr    rax,0x20
  401452:	74 0c                	je     401460 <xor_encrypt+0x80>
  401454:	4c 89 c8             	mov    rax,r9
  401457:	31 d2                	xor    edx,edx
  401459:	48 f7 f1             	div    rcx
  40145c:	eb 09                	jmp    401467 <xor_encrypt+0x87>
  40145e:	66 90                	xchg   ax,ax
  401460:	44 89 c8             	mov    eax,r9d
  401463:	31 d2                	xor    edx,edx
  401465:	f7 f1                	div    ecx
  401467:	41 0f b6 04 10       	movzx  eax,BYTE PTR [r8+rdx*1]
  40146c:	42 30 04 0f          	xor    BYTE PTR [rdi+r9*1],al
  401470:	49 8d 41 01          	lea    rax,[r9+0x1]
  401474:	48 89 c2             	mov    rdx,rax
  401477:	48 09 ca             	or     rdx,rcx
  40147a:	48 c1 ea 20          	shr    rdx,0x20
  40147e:	75 b0                	jne    401430 <xor_encrypt+0x50>
  401480:	31 d2                	xor    edx,edx
  401482:	f7 f1                	div    ecx
  401484:	eb af                	jmp    401435 <xor_encrypt+0x55>
  401486:	44 89 c8             	mov    eax,r9d
  401489:	31 d2                	xor    edx,edx
  40148b:	f7 f1                	div    ecx
  40148d:	41 8a 04 10          	mov    al,BYTE PTR [r8+rdx*1]
  401491:	42 30 04 0f          	xor    BYTE PTR [rdi+r9*1],al
  401495:	c3                   	ret    
  401496:	66 2e 0f 1f 84 00 00 	cs nop WORD PTR [rax+rax*1+0x0]
  40149d:	00 00 00 

00000000004014a0 <encryption>:
  4014a0:	41 57                	push   r15
  4014a2:	41 56                	push   r14
  4014a4:	53                   	push   rbx
  4014a5:	48 89 fb             	mov    rbx,rdi
  4014a8:	48 8b 7f 38          	mov    rdi,QWORD PTR [rdi+0x38]
  4014ac:	be b0 19 40 00       	mov    esi,0x4019b0
  4014b1:	e8 aa 04 00 00       	call   401960 <get_segment>
  4014b6:	49 89 c7             	mov    r15,rax
  4014b9:	bf 01 00 00 00       	mov    edi,0x1
  4014be:	be 20 00 00 00       	mov    esi,0x20
  4014c3:	e8 e8 fb ff ff       	call   4010b0 <calloc@plt>
  4014c8:	48 89 43 20          	mov    QWORD PTR [rbx+0x20],rax
  4014cc:	48 c7 43 28 20 00 00 	mov    QWORD PTR [rbx+0x28],0x20
  4014d3:	00 
  4014d4:	48 89 c7             	mov    rdi,rax
  4014d7:	e8 04 06 00 00       	call   401ae0 <get_key>
  4014dc:	85 c0                	test   eax,eax
  4014de:	74 20                	je     401500 <encryption+0x60>
  4014e0:	be 2d 31 40 00       	mov    esi,0x40312d
  4014e5:	bf 02 00 00 00       	mov    edi,0x2
  4014ea:	31 c0                	xor    eax,eax
  4014ec:	e8 9f fb ff ff       	call   401090 <dprintf@plt>
  4014f1:	41 be 01 00 00 00    	mov    r14d,0x1
  4014f7:	44 89 f0             	mov    eax,r14d
  4014fa:	5b                   	pop    rbx
  4014fb:	41 5e                	pop    r14
  4014fd:	41 5f                	pop    r15
  4014ff:	c3                   	ret    
  401500:	45 31 f6             	xor    r14d,r14d
  401503:	bf 56 36 40 00       	mov    edi,0x403656
  401508:	31 c0                	xor    eax,eax
  40150a:	e8 61 fb ff ff       	call   401070 <printf@plt>
  40150f:	48 8b 7b 20          	mov    rdi,QWORD PTR [rbx+0x20]
  401513:	48 8b 73 28          	mov    rsi,QWORD PTR [rbx+0x28]
  401517:	31 d2                	xor    edx,edx
  401519:	e8 32 06 00 00       	call   401b50 <hexdump>
  40151e:	4d 8b 57 20          	mov    r10,QWORD PTR [r15+0x20]
  401522:	4d 85 d2             	test   r10,r10
  401525:	74 d0                	je     4014f7 <encryption+0x57>
  401527:	4c 8b 03             	mov    r8,QWORD PTR [rbx]
  40152a:	48 8b 7b 20          	mov    rdi,QWORD PTR [rbx+0x20]
  40152e:	4d 8b 4f 08          	mov    r9,QWORD PTR [r15+0x8]
  401532:	48 8b 5b 28          	mov    rbx,QWORD PTR [rbx+0x28]
  401536:	45 31 f6             	xor    r14d,r14d
  401539:	49 83 fa 01          	cmp    r10,0x1
  40153d:	75 21                	jne    401560 <encryption+0xc0>
  40153f:	31 c9                	xor    ecx,ecx
  401541:	41 f6 c2 01          	test   r10b,0x1
  401545:	74 b0                	je     4014f7 <encryption+0x57>
  401547:	4d 01 c8             	add    r8,r9
  40154a:	48 89 c8             	mov    rax,rcx
  40154d:	48 09 d8             	or     rax,rbx
  401550:	48 c1 e8 20          	shr    rax,0x20
  401554:	74 7e                	je     4015d4 <encryption+0x134>
  401556:	48 89 c8             	mov    rax,rcx
  401559:	31 d2                	xor    edx,edx
  40155b:	48 f7 f3             	div    rbx
  40155e:	eb 7a                	jmp    4015da <encryption+0x13a>
  401560:	4d 89 d3             	mov    r11,r10
  401563:	49 83 e3 fe          	and    r11,0xfffffffffffffffe
  401567:	4b 8d 34 01          	lea    rsi,[r9+r8*1]
  40156b:	48 83 c6 01          	add    rsi,0x1
  40156f:	31 c9                	xor    ecx,ecx
  401571:	eb 22                	jmp    401595 <encryption+0xf5>
  401573:	66 2e 0f 1f 84 00 00 	cs nop WORD PTR [rax+rax*1+0x0]
  40157a:	00 00 00 
  40157d:	0f 1f 00             	nop    DWORD PTR [rax]
  401580:	31 d2                	xor    edx,edx
  401582:	48 f7 f3             	div    rbx
  401585:	0f b6 04 17          	movzx  eax,BYTE PTR [rdi+rdx*1]
  401589:	30 04 0e             	xor    BYTE PTR [rsi+rcx*1],al
  40158c:	48 83 c1 02          	add    rcx,0x2
  401590:	49 39 cb             	cmp    r11,rcx
  401593:	74 ac                	je     401541 <encryption+0xa1>
  401595:	48 89 c8             	mov    rax,rcx
  401598:	48 09 d8             	or     rax,rbx
  40159b:	48 c1 e8 20          	shr    rax,0x20
  40159f:	74 0f                	je     4015b0 <encryption+0x110>
  4015a1:	48 89 c8             	mov    rax,rcx
  4015a4:	31 d2                	xor    edx,edx
  4015a6:	48 f7 f3             	div    rbx
  4015a9:	eb 0b                	jmp    4015b6 <encryption+0x116>
  4015ab:	0f 1f 44 00 00       	nop    DWORD PTR [rax+rax*1+0x0]
  4015b0:	89 c8                	mov    eax,ecx
  4015b2:	31 d2                	xor    edx,edx
  4015b4:	f7 f3                	div    ebx
  4015b6:	0f b6 04 17          	movzx  eax,BYTE PTR [rdi+rdx*1]
  4015ba:	30 44 0e ff          	xor    BYTE PTR [rsi+rcx*1-0x1],al
  4015be:	48 8d 41 01          	lea    rax,[rcx+0x1]
  4015c2:	48 89 c2             	mov    rdx,rax
  4015c5:	48 09 da             	or     rdx,rbx
  4015c8:	48 c1 ea 20          	shr    rdx,0x20
  4015cc:	75 b2                	jne    401580 <encryption+0xe0>
  4015ce:	31 d2                	xor    edx,edx
  4015d0:	f7 f3                	div    ebx
  4015d2:	eb b1                	jmp    401585 <encryption+0xe5>
  4015d4:	89 c8                	mov    eax,ecx
  4015d6:	31 d2                	xor    edx,edx
  4015d8:	f7 f3                	div    ebx
  4015da:	8a 04 17             	mov    al,BYTE PTR [rdi+rdx*1]
  4015dd:	41 30 04 08          	xor    BYTE PTR [r8+rcx*1],al
  4015e1:	e9 11 ff ff ff       	jmp    4014f7 <encryption+0x57>
  4015e6:	66 2e 0f 1f 84 00 00 	cs nop WORD PTR [rax+rax*1+0x0]
  4015ed:	00 00 00 

00000000004015f0 <cave_too_small>:
  4015f0:	48 8b 47 38          	mov    rax,QWORD PTR [rdi+0x38]
  4015f4:	eb 0e                	jmp    401604 <cave_too_small+0x14>
  4015f6:	66 2e 0f 1f 84 00 00 	cs nop WORD PTR [rax+rax*1+0x0]
  4015fd:	00 00 00 
  401600:	48 8b 40 08          	mov    rax,QWORD PTR [rax+0x8]
  401604:	48 85 c0             	test   rax,rax
  401607:	74 1f                	je     401628 <cave_too_small+0x38>
  401609:	48 8b 08             	mov    rcx,QWORD PTR [rax]
  40160c:	83 39 01             	cmp    DWORD PTR [rcx],0x1
  40160f:	75 ef                	jne    401600 <cave_too_small+0x10>
  401611:	48 8b 49 08          	mov    rcx,QWORD PTR [rcx+0x8]
  401615:	48 39 f1             	cmp    rcx,rsi
  401618:	72 e6                	jb     401600 <cave_too_small+0x10>
  40161a:	48 03 77 18          	add    rsi,QWORD PTR [rdi+0x18]
  40161e:	31 c0                	xor    eax,eax
  401620:	48 29 ce             	sub    rsi,rcx
  401623:	48 0f 43 c6          	cmovae rax,rsi
  401627:	c3                   	ret    
  401628:	48 03 77 18          	add    rsi,QWORD PTR [rdi+0x18]
  40162c:	31 c0                	xor    eax,eax
  40162e:	48 2b 77 08          	sub    rsi,QWORD PTR [rdi+0x8]
  401632:	48 0f 43 c6          	cmovae rax,rsi
  401636:	c3                   	ret    
  401637:	66 0f 1f 84 00 00 00 	nop    WORD PTR [rax+rax*1+0x0]
  40163e:	00 00 

0000000000401640 <resize_file>:
  401640:	41 57                	push   r15
  401642:	41 56                	push   r14
  401644:	41 55                	push   r13
  401646:	41 54                	push   r12
  401648:	53                   	push   rbx
  401649:	49 89 d6             	mov    r14,rdx
  40164c:	49 89 f7             	mov    r15,rsi
  40164f:	49 89 fc             	mov    r12,rdi
  401652:	48 8b 3f             	mov    rdi,QWORD PTR [rdi]
  401655:	49 8b 74 24 08       	mov    rsi,QWORD PTR [r12+0x8]
  40165a:	48 01 d6             	add    rsi,rdx
  40165d:	e8 7e fa ff ff       	call   4010e0 <realloc@plt>
  401662:	48 85 c0             	test   rax,rax
  401665:	74 47                	je     4016ae <resize_file+0x6e>
  401667:	48 89 c3             	mov    rbx,rax
  40166a:	49 89 04 24          	mov    QWORD PTR [r12],rax
  40166e:	4c 01 fb             	add    rbx,r15
  401671:	4a 8d 3c 33          	lea    rdi,[rbx+r14*1]
  401675:	4d 8b 6c 24 08       	mov    r13,QWORD PTR [r12+0x8]
  40167a:	4c 89 ea             	mov    rdx,r13
  40167d:	4c 29 fa             	sub    rdx,r15
  401680:	48 89 de             	mov    rsi,rbx
  401683:	e8 38 fa ff ff       	call   4010c0 <memcpy@plt>
  401688:	49 8b 74 24 10       	mov    rsi,QWORD PTR [r12+0x10]
  40168d:	49 8b 54 24 18       	mov    rdx,QWORD PTR [r12+0x18]
  401692:	48 89 df             	mov    rdi,rbx
  401695:	e8 26 fa ff ff       	call   4010c0 <memcpy@plt>
  40169a:	4d 01 f5             	add    r13,r14
  40169d:	4d 89 6c 24 08       	mov    QWORD PTR [r12+0x8],r13
  4016a2:	31 c0                	xor    eax,eax
  4016a4:	5b                   	pop    rbx
  4016a5:	41 5c                	pop    r12
  4016a7:	41 5d                	pop    r13
  4016a9:	41 5e                	pop    r14
  4016ab:	41 5f                	pop    r15
  4016ad:	c3                   	ret    
  4016ae:	bf 40 31 40 00       	mov    edi,0x403140
  4016b3:	e8 48 fa ff ff       	call   401100 <perror@plt>
  4016b8:	b8 01 00 00 00       	mov    eax,0x1
  4016bd:	eb e5                	jmp    4016a4 <resize_file+0x64>
  4016bf:	90                   	nop

00000000004016c0 <find_code_cave>:
  4016c0:	55                   	push   rbp
  4016c1:	41 57                	push   r15
  4016c3:	41 56                	push   r14
  4016c5:	41 55                	push   r13
  4016c7:	41 54                	push   r12
  4016c9:	53                   	push   rbx
  4016ca:	48 83 ec 18          	sub    rsp,0x18
  4016ce:	48 89 fb             	mov    rbx,rdi
  4016d1:	4c 8b 67 30          	mov    r12,QWORD PTR [rdi+0x30]
  4016d5:	48 8b 7f 38          	mov    rdi,QWORD PTR [rdi+0x38]
  4016d9:	be b0 19 40 00       	mov    esi,0x4019b0
  4016de:	e8 7d 02 00 00       	call   401960 <get_segment>
  4016e3:	48 89 c5             	mov    rbp,rax
  4016e6:	48 8b 78 08          	mov    rdi,QWORD PTR [rax+0x8]
  4016ea:	48 8b 40 20          	mov    rax,QWORD PTR [rax+0x20]
  4016ee:	48 8d 0c 38          	lea    rcx,[rax+rdi*1]
  4016f2:	48 8b 53 38          	mov    rdx,QWORD PTR [rbx+0x38]
  4016f6:	eb 0c                	jmp    401704 <find_code_cave+0x44>
  4016f8:	0f 1f 84 00 00 00 00 	nop    DWORD PTR [rax+rax*1+0x0]
  4016ff:	00 
  401700:	48 8b 52 08          	mov    rdx,QWORD PTR [rdx+0x8]
  401704:	48 85 d2             	test   rdx,rdx
  401707:	74 33                	je     40173c <find_code_cave+0x7c>
  401709:	48 8b 32             	mov    rsi,QWORD PTR [rdx]
  40170c:	83 3e 01             	cmp    DWORD PTR [rsi],0x1
  40170f:	75 ef                	jne    401700 <find_code_cave+0x40>
  401711:	48 8b 76 08          	mov    rsi,QWORD PTR [rsi+0x8]
  401715:	48 39 ce             	cmp    rsi,rcx
  401718:	72 e6                	jb     401700 <find_code_cave+0x40>
  40171a:	48 8b 53 18          	mov    rdx,QWORD PTR [rbx+0x18]
  40171e:	48 01 d1             	add    rcx,rdx
  401721:	45 31 ed             	xor    r13d,r13d
  401724:	48 29 f1             	sub    rcx,rsi
  401727:	4c 0f 43 e9          	cmovae r13,rcx
  40172b:	4d 85 ed             	test   r13,r13
  40172e:	75 23                	jne    401753 <find_code_cave+0x93>
  401730:	48 8b 0b             	mov    rcx,QWORD PTR [rbx]
  401733:	48 8b 73 10          	mov    rsi,QWORD PTR [rbx+0x10]
  401737:	e9 ad 00 00 00       	jmp    4017e9 <find_code_cave+0x129>
  40173c:	48 8b 53 18          	mov    rdx,QWORD PTR [rbx+0x18]
  401740:	48 01 d1             	add    rcx,rdx
  401743:	45 31 ed             	xor    r13d,r13d
  401746:	48 2b 4b 08          	sub    rcx,QWORD PTR [rbx+0x8]
  40174a:	4c 0f 43 e9          	cmovae r13,rcx
  40174e:	4d 85 ed             	test   r13,r13
  401751:	74 dd                	je     401730 <find_code_cave+0x70>
  401753:	bf 48 31 40 00       	mov    edi,0x403148
  401758:	e8 f3 f8 ff ff       	call   401050 <puts@plt>
  40175d:	4c 8b 7d 20          	mov    r15,QWORD PTR [rbp+0x20]
  401761:	4c 03 7d 08          	add    r15,QWORD PTR [rbp+0x8]
  401765:	48 8b 3b             	mov    rdi,QWORD PTR [rbx]
  401768:	48 8b 73 08          	mov    rsi,QWORD PTR [rbx+0x8]
  40176c:	4c 01 ee             	add    rsi,r13
  40176f:	e8 6c f9 ff ff       	call   4010e0 <realloc@plt>
  401774:	48 85 c0             	test   rax,rax
  401777:	0f 84 b0 00 00 00    	je     40182d <find_code_cave+0x16d>
  40177d:	48 89 03             	mov    QWORD PTR [rbx],rax
  401780:	48 89 04 24          	mov    QWORD PTR [rsp],rax
  401784:	48 89 6c 24 08       	mov    QWORD PTR [rsp+0x8],rbp
  401789:	48 8b 2c 24          	mov    rbp,QWORD PTR [rsp]
  40178d:	4c 01 fd             	add    rbp,r15
  401790:	48 89 ef             	mov    rdi,rbp
  401793:	4c 01 ef             	add    rdi,r13
  401796:	4c 89 64 24 10       	mov    QWORD PTR [rsp+0x10],r12
  40179b:	4c 8b 63 08          	mov    r12,QWORD PTR [rbx+0x8]
  40179f:	4c 89 e2             	mov    rdx,r12
  4017a2:	4c 29 fa             	sub    rdx,r15
  4017a5:	48 89 ee             	mov    rsi,rbp
  4017a8:	e8 13 f9 ff ff       	call   4010c0 <memcpy@plt>
  4017ad:	4c 8b 7b 10          	mov    r15,QWORD PTR [rbx+0x10]
  4017b1:	4c 8b 73 18          	mov    r14,QWORD PTR [rbx+0x18]
  4017b5:	48 89 ef             	mov    rdi,rbp
  4017b8:	48 8b 2c 24          	mov    rbp,QWORD PTR [rsp]
  4017bc:	4c 89 fe             	mov    rsi,r15
  4017bf:	4c 89 f2             	mov    rdx,r14
  4017c2:	e8 f9 f8 ff ff       	call   4010c0 <memcpy@plt>
  4017c7:	48 89 e9             	mov    rcx,rbp
  4017ca:	4c 89 f2             	mov    rdx,r14
  4017cd:	4c 89 fe             	mov    rsi,r15
  4017d0:	4d 01 ec             	add    r12,r13
  4017d3:	4c 89 63 08          	mov    QWORD PTR [rbx+0x8],r12
  4017d7:	4c 8b 64 24 10       	mov    r12,QWORD PTR [rsp+0x10]
  4017dc:	48 8b 6c 24 08       	mov    rbp,QWORD PTR [rsp+0x8]
  4017e1:	48 8b 7d 08          	mov    rdi,QWORD PTR [rbp+0x8]
  4017e5:	48 8b 45 20          	mov    rax,QWORD PTR [rbp+0x20]
  4017e9:	48 01 cf             	add    rdi,rcx
  4017ec:	48 01 c7             	add    rdi,rax
  4017ef:	e8 cc f8 ff ff       	call   4010c0 <memcpy@plt>
  4017f4:	48 8b 45 28          	mov    rax,QWORD PTR [rbp+0x28]
  4017f8:	49 8b 4c 24 18       	mov    rcx,QWORD PTR [r12+0x18]
  4017fd:	48 01 c1             	add    rcx,rax
  401800:	48 83 c1 0f          	add    rcx,0xf
  401804:	49 89 4c 24 18       	mov    QWORD PTR [r12+0x18],rcx
  401809:	80 4d 04 02          	or     BYTE PTR [rbp+0x4],0x2
  40180d:	48 8b 4b 18          	mov    rcx,QWORD PTR [rbx+0x18]
  401811:	48 01 4d 20          	add    QWORD PTR [rbp+0x20],rcx
  401815:	48 01 c1             	add    rcx,rax
  401818:	48 89 4d 28          	mov    QWORD PTR [rbp+0x28],rcx
  40181c:	31 c0                	xor    eax,eax
  40181e:	48 83 c4 18          	add    rsp,0x18
  401822:	5b                   	pop    rbx
  401823:	41 5c                	pop    r12
  401825:	41 5d                	pop    r13
  401827:	41 5e                	pop    r14
  401829:	41 5f                	pop    r15
  40182b:	5d                   	pop    rbp
  40182c:	c3                   	ret    
  40182d:	bf 40 31 40 00       	mov    edi,0x403140
  401832:	e8 c9 f8 ff ff       	call   401100 <perror@plt>
  401837:	bf 57 31 40 00       	mov    edi,0x403157
  40183c:	e8 0f f8 ff ff       	call   401050 <puts@plt>
  401841:	eb d9                	jmp    40181c <find_code_cave+0x15c>
  401843:	66 2e 0f 1f 84 00 00 	cs nop WORD PTR [rax+rax*1+0x0]
  40184a:	00 00 00 
  40184d:	0f 1f 00             	nop    DWORD PTR [rax]

0000000000401850 <push_back_phdrs>:
  401850:	41 56                	push   r14
  401852:	53                   	push   rbx
  401853:	50                   	push   rax
  401854:	49 89 f6             	mov    r14,rsi
  401857:	48 89 fb             	mov    rbx,rdi
  40185a:	bf 10 00 00 00       	mov    edi,0x10
  40185f:	be 01 00 00 00       	mov    esi,0x1
  401864:	e8 47 f8 ff ff       	call   4010b0 <calloc@plt>
  401869:	4c 89 30             	mov    QWORD PTR [rax],r14
  40186c:	48 8b 0b             	mov    rcx,QWORD PTR [rbx]
  40186f:	48 85 c9             	test   rcx,rcx
  401872:	74 1c                	je     401890 <push_back_phdrs+0x40>
  401874:	66 2e 0f 1f 84 00 00 	cs nop WORD PTR [rax+rax*1+0x0]
  40187b:	00 00 00 
  40187e:	66 90                	xchg   ax,ax
  401880:	48 89 cb             	mov    rbx,rcx
  401883:	48 8b 49 08          	mov    rcx,QWORD PTR [rcx+0x8]
  401887:	48 85 c9             	test   rcx,rcx
  40188a:	75 f4                	jne    401880 <push_back_phdrs+0x30>
  40188c:	48 83 c3 08          	add    rbx,0x8
  401890:	48 89 03             	mov    QWORD PTR [rbx],rax
  401893:	48 83 c4 08          	add    rsp,0x8
  401897:	5b                   	pop    rbx
  401898:	41 5e                	pop    r14
  40189a:	c3                   	ret    
  40189b:	0f 1f 44 00 00       	nop    DWORD PTR [rax+rax*1+0x0]

00000000004018a0 <parse_program_headers>:
  4018a0:	55                   	push   rbp
  4018a1:	41 57                	push   r15
  4018a3:	41 56                	push   r14
  4018a5:	41 55                	push   r13
  4018a7:	41 54                	push   r12
  4018a9:	53                   	push   rbx
  4018aa:	50                   	push   rax
  4018ab:	48 8b 47 30          	mov    rax,QWORD PTR [rdi+0x30]
  4018af:	66 83 78 36 38       	cmp    WORD PTR [rax+0x36],0x38
  4018b4:	75 7c                	jne    401932 <parse_program_headers+0x92>
  4018b6:	44 0f b7 70 38       	movzx  r14d,WORD PTR [rax+0x38]
  4018bb:	66 45 85 f6          	test   r14w,r14w
  4018bf:	0f 84 7e 00 00 00    	je     401943 <parse_program_headers+0xa3>
  4018c5:	49 89 fc             	mov    r12,rdi
  4018c8:	48 8b 68 20          	mov    rbp,QWORD PTR [rax+0x20]
  4018cc:	4c 8b 3f             	mov    r15,QWORD PTR [rdi]
  4018cf:	49 83 c4 38          	add    r12,0x38
  4018d3:	31 db                	xor    ebx,ebx
  4018d5:	eb 19                	jmp    4018f0 <parse_program_headers+0x50>
  4018d7:	66 0f 1f 84 00 00 00 	nop    WORD PTR [rax+rax*1+0x0]
  4018de:	00 00 
  4018e0:	48 83 c5 38          	add    rbp,0x38
  4018e4:	48 89 01             	mov    QWORD PTR [rcx],rax
  4018e7:	83 c3 01             	add    ebx,0x1
  4018ea:	66 44 39 f3          	cmp    bx,r14w
  4018ee:	74 53                	je     401943 <parse_program_headers+0xa3>
  4018f0:	4d 8d 2c 2f          	lea    r13,[r15+rbp*1]
  4018f4:	49 83 c5 38          	add    r13,0x38
  4018f8:	bf 10 00 00 00       	mov    edi,0x10
  4018fd:	be 01 00 00 00       	mov    esi,0x1
  401902:	e8 a9 f7 ff ff       	call   4010b0 <calloc@plt>
  401907:	4c 89 28             	mov    QWORD PTR [rax],r13
  40190a:	49 8b 14 24          	mov    rdx,QWORD PTR [r12]
  40190e:	4c 89 e1             	mov    rcx,r12
  401911:	48 85 d2             	test   rdx,rdx
  401914:	74 ca                	je     4018e0 <parse_program_headers+0x40>
  401916:	66 2e 0f 1f 84 00 00 	cs nop WORD PTR [rax+rax*1+0x0]
  40191d:	00 00 00 
  401920:	48 89 d1             	mov    rcx,rdx
  401923:	48 8b 52 08          	mov    rdx,QWORD PTR [rdx+0x8]
  401927:	48 85 d2             	test   rdx,rdx
  40192a:	75 f4                	jne    401920 <parse_program_headers+0x80>
  40192c:	48 83 c1 08          	add    rcx,0x8
  401930:	eb ae                	jmp    4018e0 <parse_program_headers+0x40>
  401932:	bf 71 31 40 00       	mov    edi,0x403171
  401937:	e8 14 f7 ff ff       	call   401050 <puts@plt>
  40193c:	b8 01 00 00 00       	mov    eax,0x1
  401941:	eb 02                	jmp    401945 <parse_program_headers+0xa5>
  401943:	31 c0                	xor    eax,eax
  401945:	48 83 c4 08          	add    rsp,0x8
  401949:	5b                   	pop    rbx
  40194a:	41 5c                	pop    r12
  40194c:	41 5d                	pop    r13
  40194e:	41 5e                	pop    r14
  401950:	41 5f                	pop    r15
  401952:	5d                   	pop    rbp
  401953:	c3                   	ret    
  401954:	66 2e 0f 1f 84 00 00 	cs nop WORD PTR [rax+rax*1+0x0]
  40195b:	00 00 00 
  40195e:	66 90                	xchg   ax,ax

0000000000401960 <get_segment>:
  401960:	41 57                	push   r15
  401962:	41 56                	push   r14
  401964:	53                   	push   rbx
  401965:	48 85 ff             	test   rdi,rdi
  401968:	74 2b                	je     401995 <get_segment+0x35>
  40196a:	49 89 f7             	mov    r15,rsi
  40196d:	48 89 fb             	mov    rbx,rdi
  401970:	45 31 f6             	xor    r14d,r14d
  401973:	66 2e 0f 1f 84 00 00 	cs nop WORD PTR [rax+rax*1+0x0]
  40197a:	00 00 00 
  40197d:	0f 1f 00             	nop    DWORD PTR [rax]
  401980:	48 8b 3b             	mov    rdi,QWORD PTR [rbx]
  401983:	41 ff d7             	call   r15
  401986:	85 c0                	test   eax,eax
  401988:	75 10                	jne    40199a <get_segment+0x3a>
  40198a:	48 8b 5b 08          	mov    rbx,QWORD PTR [rbx+0x8]
  40198e:	48 85 db             	test   rbx,rbx
  401991:	75 ed                	jne    401980 <get_segment+0x20>
  401993:	eb 08                	jmp    40199d <get_segment+0x3d>
  401995:	45 31 f6             	xor    r14d,r14d
  401998:	eb 03                	jmp    40199d <get_segment+0x3d>
  40199a:	4c 8b 33             	mov    r14,QWORD PTR [rbx]
  40199d:	4c 89 f0             	mov    rax,r14
  4019a0:	5b                   	pop    rbx
  4019a1:	41 5e                	pop    r14
  4019a3:	41 5f                	pop    r15
  4019a5:	c3                   	ret    
  4019a6:	66 2e 0f 1f 84 00 00 	cs nop WORD PTR [rax+rax*1+0x0]
  4019ad:	00 00 00 

00000000004019b0 <is_text_segment_64>:
  4019b0:	83 3f 01             	cmp    DWORD PTR [rdi],0x1
  4019b3:	75 0b                	jne    4019c0 <is_text_segment_64+0x10>
  4019b5:	b8 01 00 00 00       	mov    eax,0x1
  4019ba:	f6 47 04 01          	test   BYTE PTR [rdi+0x4],0x1
  4019be:	75 02                	jne    4019c2 <is_text_segment_64+0x12>
  4019c0:	31 c0                	xor    eax,eax
  4019c2:	c3                   	ret    
  4019c3:	66 2e 0f 1f 84 00 00 	cs nop WORD PTR [rax+rax*1+0x0]
  4019ca:	00 00 00 
  4019cd:	0f 1f 00             	nop    DWORD PTR [rax]

00000000004019d0 <save_new_file>:
  4019d0:	55                   	push   rbp
  4019d1:	41 56                	push   r14
  4019d3:	53                   	push   rbx
  4019d4:	48 89 fb             	mov    rbx,rdi
  4019d7:	45 31 f6             	xor    r14d,r14d
  4019da:	bf 95 31 40 00       	mov    edi,0x403195
  4019df:	be 41 00 00 00       	mov    esi,0x41
  4019e4:	ba ff 01 00 00       	mov    edx,0x1ff
  4019e9:	31 c0                	xor    eax,eax
  4019eb:	e8 00 f7 ff ff       	call   4010f0 <open@plt>
  4019f0:	83 f8 ff             	cmp    eax,0xffffffff
  4019f3:	74 19                	je     401a0e <save_new_file+0x3e>
  4019f5:	89 c5                	mov    ebp,eax
  4019f7:	48 8b 33             	mov    rsi,QWORD PTR [rbx]
  4019fa:	48 8b 53 08          	mov    rdx,QWORD PTR [rbx+0x8]
  4019fe:	89 c7                	mov    edi,eax
  401a00:	e8 5b f6 ff ff       	call   401060 <write@plt>
  401a05:	89 ef                	mov    edi,ebp
  401a07:	e8 74 f6 ff ff       	call   401080 <close@plt>
  401a0c:	eb 10                	jmp    401a1e <save_new_file+0x4e>
  401a0e:	bf 1c 30 40 00       	mov    edi,0x40301c
  401a13:	e8 38 f6 ff ff       	call   401050 <puts@plt>
  401a18:	41 be 01 00 00 00    	mov    r14d,0x1
  401a1e:	44 89 f0             	mov    eax,r14d
  401a21:	5b                   	pop    rbx
  401a22:	41 5e                	pop    r14
  401a24:	5d                   	pop    rbp
  401a25:	c3                   	ret    
  401a26:	66 2e 0f 1f 84 00 00 	cs nop WORD PTR [rax+rax*1+0x0]
  401a2d:	00 00 00 

0000000000401a30 <read_file>:
  401a30:	55                   	push   rbp
  401a31:	41 57                	push   r15
  401a33:	41 56                	push   r14
  401a35:	41 55                	push   r13
  401a37:	41 54                	push   r12
  401a39:	53                   	push   rbx
  401a3a:	48 81 ec 08 20 00 00 	sub    rsp,0x2008
  401a41:	49 89 d5             	mov    r13,rdx
  401a44:	49 89 f6             	mov    r14,rsi
  401a47:	41 89 fc             	mov    r12d,edi
  401a4a:	49 89 e7             	mov    r15,rsp
  401a4d:	0f 1f 00             	nop    DWORD PTR [rax]
  401a50:	ba 00 20 00 00       	mov    edx,0x2000
  401a55:	44 89 e7             	mov    edi,r12d
  401a58:	4c 89 fe             	mov    rsi,r15
  401a5b:	e8 40 f6 ff ff       	call   4010a0 <read@plt>
  401a60:	48 85 c0             	test   rax,rax
  401a63:	74 3e                	je     401aa3 <read_file+0x73>
  401a65:	48 89 c5             	mov    rbp,rax
  401a68:	48 83 f8 ff          	cmp    rax,0xffffffffffffffff
  401a6c:	74 39                	je     401aa7 <read_file+0x77>
  401a6e:	49 8b 3e             	mov    rdi,QWORD PTR [r14]
  401a71:	49 8b 75 00          	mov    rsi,QWORD PTR [r13+0x0]
  401a75:	48 01 ee             	add    rsi,rbp
  401a78:	e8 63 f6 ff ff       	call   4010e0 <realloc@plt>
  401a7d:	48 85 c0             	test   rax,rax
  401a80:	74 2f                	je     401ab1 <read_file+0x81>
  401a82:	49 89 06             	mov    QWORD PTR [r14],rax
  401a85:	49 8b 5d 00          	mov    rbx,QWORD PTR [r13+0x0]
  401a89:	48 01 d8             	add    rax,rbx
  401a8c:	48 89 c7             	mov    rdi,rax
  401a8f:	4c 89 fe             	mov    rsi,r15
  401a92:	48 89 ea             	mov    rdx,rbp
  401a95:	e8 26 f6 ff ff       	call   4010c0 <memcpy@plt>
  401a9a:	48 01 dd             	add    rbp,rbx
  401a9d:	49 89 6d 00          	mov    QWORD PTR [r13+0x0],rbp
  401aa1:	eb ad                	jmp    401a50 <read_file+0x20>
  401aa3:	31 db                	xor    ebx,ebx
  401aa5:	eb 17                	jmp    401abe <read_file+0x8e>
  401aa7:	4d 8b 36             	mov    r14,QWORD PTR [r14]
  401aaa:	bb 03 00 00 00       	mov    ebx,0x3
  401aaf:	eb 05                	jmp    401ab6 <read_file+0x86>
  401ab1:	bb 04 00 00 00       	mov    ebx,0x4
  401ab6:	4c 89 f7             	mov    rdi,r14
  401ab9:	e8 72 f5 ff ff       	call   401030 <free@plt>
  401abe:	89 d8                	mov    eax,ebx
  401ac0:	48 81 c4 08 20 00 00 	add    rsp,0x2008
  401ac7:	5b                   	pop    rbx
  401ac8:	41 5c                	pop    r12
  401aca:	41 5d                	pop    r13
  401acc:	41 5e                	pop    r14
  401ace:	41 5f                	pop    r15
  401ad0:	5d                   	pop    rbp
  401ad1:	c3                   	ret    
  401ad2:	66 2e 0f 1f 84 00 00 	cs nop WORD PTR [rax+rax*1+0x0]
  401ad9:	00 00 00 
  401adc:	0f 1f 40 00          	nop    DWORD PTR [rax+0x0]

0000000000401ae0 <get_key>:
  401ae0:	55                   	push   rbp
  401ae1:	53                   	push   rbx
  401ae2:	50                   	push   rax
  401ae3:	48 89 fb             	mov    rbx,rdi
  401ae6:	bf 9d 31 40 00       	mov    edi,0x40319d
  401aeb:	31 f6                	xor    esi,esi
  401aed:	31 c0                	xor    eax,eax
  401aef:	e8 fc f5 ff ff       	call   4010f0 <open@plt>
  401af4:	83 f8 ff             	cmp    eax,0xffffffff
  401af7:	74 27                	je     401b20 <get_key+0x40>
  401af9:	89 c5                	mov    ebp,eax
  401afb:	ba 20 00 00 00       	mov    edx,0x20
  401b00:	89 c7                	mov    edi,eax
  401b02:	48 89 de             	mov    rsi,rbx
  401b05:	e8 96 f5 ff ff       	call   4010a0 <read@plt>
  401b0a:	48 83 f8 ff          	cmp    rax,0xffffffffffffffff
  401b0e:	74 17                	je     401b27 <get_key+0x47>
  401b10:	89 ef                	mov    edi,ebp
  401b12:	e8 69 f5 ff ff       	call   401080 <close@plt>
  401b17:	31 c0                	xor    eax,eax
  401b19:	48 83 c4 08          	add    rsp,0x8
  401b1d:	5b                   	pop    rbx
  401b1e:	5d                   	pop    rbp
  401b1f:	c3                   	ret    
  401b20:	be aa 31 40 00       	mov    esi,0x4031aa
  401b25:	eb 05                	jmp    401b2c <get_key+0x4c>
  401b27:	be c7 31 40 00       	mov    esi,0x4031c7
  401b2c:	bf 02 00 00 00       	mov    edi,0x2
  401b31:	31 c0                	xor    eax,eax
  401b33:	e8 58 f5 ff ff       	call   401090 <dprintf@plt>
  401b38:	b8 01 00 00 00       	mov    eax,0x1
  401b3d:	48 83 c4 08          	add    rsp,0x8
  401b41:	5b                   	pop    rbx
  401b42:	5d                   	pop    rbp
  401b43:	c3                   	ret    
  401b44:	66 2e 0f 1f 84 00 00 	cs nop WORD PTR [rax+rax*1+0x0]
  401b4b:	00 00 00 
  401b4e:	66 90                	xchg   ax,ax

0000000000401b50 <hexdump>:
  401b50:	55                   	push   rbp
  401b51:	41 57                	push   r15
  401b53:	41 56                	push   r14
  401b55:	41 55                	push   r13
  401b57:	41 54                	push   r12
  401b59:	53                   	push   rbx
  401b5a:	50                   	push   rax
  401b5b:	49 89 f5             	mov    r13,rsi
  401b5e:	49 89 fe             	mov    r14,rdi
  401b61:	85 d2                	test   edx,edx
  401b63:	74 60                	je     401bc5 <hexdump+0x75>
  401b65:	4d 85 ed             	test   r13,r13
  401b68:	0f 84 7c 00 00 00    	je     401bea <hexdump+0x9a>
  401b6e:	4c 63 fa             	movsxd r15,edx
  401b71:	41 bc 01 00 00 00    	mov    r12d,0x1
  401b77:	31 db                	xor    ebx,ebx
  401b79:	eb 17                	jmp    401b92 <hexdump+0x42>
  401b7b:	0f 1f 44 00 00       	nop    DWORD PTR [rax+rax*1+0x0]
  401b80:	bf 0a 00 00 00       	mov    edi,0xa
  401b85:	e8 b6 f4 ff ff       	call   401040 <putchar@plt>
  401b8a:	4d 01 fc             	add    r12,r15
  401b8d:	4c 39 eb             	cmp    rbx,r13
  401b90:	73 58                	jae    401bea <hexdump+0x9a>
  401b92:	48 89 d8             	mov    rax,rbx
  401b95:	4c 01 fb             	add    rbx,r15
  401b98:	48 39 d8             	cmp    rax,rbx
  401b9b:	73 e3                	jae    401b80 <hexdump+0x30>
  401b9d:	4c 89 e5             	mov    rbp,r12
  401ba0:	41 0f b6 74 2e ff    	movzx  esi,BYTE PTR [r14+rbp*1-0x1]
  401ba6:	bf b8 32 40 00       	mov    edi,0x4032b8
  401bab:	31 c0                	xor    eax,eax
  401bad:	e8 be f4 ff ff       	call   401070 <printf@plt>
  401bb2:	48 39 dd             	cmp    rbp,rbx
  401bb5:	73 c9                	jae    401b80 <hexdump+0x30>
  401bb7:	48 8d 45 01          	lea    rax,[rbp+0x1]
  401bbb:	49 39 ed             	cmp    r13,rbp
  401bbe:	48 89 c5             	mov    rbp,rax
  401bc1:	75 dd                	jne    401ba0 <hexdump+0x50>
  401bc3:	eb bb                	jmp    401b80 <hexdump+0x30>
  401bc5:	4d 85 ed             	test   r13,r13
  401bc8:	74 20                	je     401bea <hexdump+0x9a>
  401bca:	31 db                	xor    ebx,ebx
  401bcc:	0f 1f 40 00          	nop    DWORD PTR [rax+0x0]
  401bd0:	41 0f b6 34 1e       	movzx  esi,BYTE PTR [r14+rbx*1]
  401bd5:	bf b8 32 40 00       	mov    edi,0x4032b8
  401bda:	31 c0                	xor    eax,eax
  401bdc:	e8 8f f4 ff ff       	call   401070 <printf@plt>
  401be1:	48 83 c3 01          	add    rbx,0x1
  401be5:	49 39 dd             	cmp    r13,rbx
  401be8:	75 e6                	jne    401bd0 <hexdump+0x80>
  401bea:	bf 0a 00 00 00       	mov    edi,0xa
  401bef:	48 83 c4 08          	add    rsp,0x8
  401bf3:	5b                   	pop    rbx
  401bf4:	41 5c                	pop    r12
  401bf6:	41 5d                	pop    r13
  401bf8:	41 5e                	pop    r14
  401bfa:	41 5f                	pop    r15
  401bfc:	5d                   	pop    rbp
  401bfd:	e9 3e f4 ff ff       	jmp    401040 <putchar@plt>
  401c02:	66 2e 0f 1f 84 00 00 	cs nop WORD PTR [rax+rax*1+0x0]
  401c09:	00 00 00 
  401c0c:	0f 1f 40 00          	nop    DWORD PTR [rax+0x0]

0000000000401c10 <asciidump>:
  401c10:	55                   	push   rbp
  401c11:	41 57                	push   r15
  401c13:	41 56                	push   r14
  401c15:	41 55                	push   r13
  401c17:	41 54                	push   r12
  401c19:	53                   	push   rbx
  401c1a:	50                   	push   rax
  401c1b:	49 89 f5             	mov    r13,rsi
  401c1e:	49 89 fe             	mov    r14,rdi
  401c21:	85 d2                	test   edx,edx
  401c23:	0f 84 9e 00 00 00    	je     401cc7 <asciidump+0xb7>
  401c29:	4d 85 ed             	test   r13,r13
  401c2c:	0f 84 de 00 00 00    	je     401d10 <asciidump+0x100>
  401c32:	41 89 d7             	mov    r15d,edx
  401c35:	41 bc 01 00 00 00    	mov    r12d,0x1
  401c3b:	31 db                	xor    ebx,ebx
  401c3d:	eb 1e                	jmp    401c5d <asciidump+0x4d>
  401c3f:	90                   	nop
  401c40:	be e2 31 40 00       	mov    esi,0x4031e2
  401c45:	bf 01 00 00 00       	mov    edi,0x1
  401c4a:	31 c0                	xor    eax,eax
  401c4c:	e8 3f f4 ff ff       	call   401090 <dprintf@plt>
  401c51:	4d 01 fc             	add    r12,r15
  401c54:	4c 39 eb             	cmp    rbx,r13
  401c57:	0f 83 b3 00 00 00    	jae    401d10 <asciidump+0x100>
  401c5d:	48 89 d8             	mov    rax,rbx
  401c60:	4c 01 fb             	add    rbx,r15
  401c63:	48 39 d8             	cmp    rax,rbx
  401c66:	73 d8                	jae    401c40 <asciidump+0x30>
  401c68:	4c 89 e5             	mov    rbp,r12
  401c6b:	0f 1f 44 00 00       	nop    DWORD PTR [rax+rax*1+0x0]
  401c70:	41 0f b6 54 2e ff    	movzx  edx,BYTE PTR [r14+rbp*1-0x1]
  401c76:	8d 42 e0             	lea    eax,[rdx-0x20]
  401c79:	3c 5e                	cmp    al,0x5e
  401c7b:	77 23                	ja     401ca0 <asciidump+0x90>
  401c7d:	be be 32 40 00       	mov    esi,0x4032be
  401c82:	bf 01 00 00 00       	mov    edi,0x1
  401c87:	31 c0                	xor    eax,eax
  401c89:	e8 02 f4 ff ff       	call   401090 <dprintf@plt>
  401c8e:	48 39 dd             	cmp    rbp,rbx
  401c91:	72 23                	jb     401cb6 <asciidump+0xa6>
  401c93:	eb ab                	jmp    401c40 <asciidump+0x30>
  401c95:	66 2e 0f 1f 84 00 00 	cs nop WORD PTR [rax+rax*1+0x0]
  401c9c:	00 00 00 
  401c9f:	90                   	nop
  401ca0:	be c1 32 40 00       	mov    esi,0x4032c1
  401ca5:	bf 01 00 00 00       	mov    edi,0x1
  401caa:	31 c0                	xor    eax,eax
  401cac:	e8 df f3 ff ff       	call   401090 <dprintf@plt>
  401cb1:	48 39 dd             	cmp    rbp,rbx
  401cb4:	73 8a                	jae    401c40 <asciidump+0x30>
  401cb6:	48 8d 45 01          	lea    rax,[rbp+0x1]
  401cba:	49 39 ed             	cmp    r13,rbp
  401cbd:	48 89 c5             	mov    rbp,rax
  401cc0:	75 ae                	jne    401c70 <asciidump+0x60>
  401cc2:	e9 79 ff ff ff       	jmp    401c40 <asciidump+0x30>
  401cc7:	4d 85 ed             	test   r13,r13
  401cca:	74 44                	je     401d10 <asciidump+0x100>
  401ccc:	31 db                	xor    ebx,ebx
  401cce:	eb 1a                	jmp    401cea <asciidump+0xda>
  401cd0:	be c1 32 40 00       	mov    esi,0x4032c1
  401cd5:	bf 01 00 00 00       	mov    edi,0x1
  401cda:	31 c0                	xor    eax,eax
  401cdc:	e8 af f3 ff ff       	call   401090 <dprintf@plt>
  401ce1:	48 83 c3 01          	add    rbx,0x1
  401ce5:	49 39 dd             	cmp    r13,rbx
  401ce8:	74 26                	je     401d10 <asciidump+0x100>
  401cea:	41 0f b6 14 1e       	movzx  edx,BYTE PTR [r14+rbx*1]
  401cef:	8d 42 e0             	lea    eax,[rdx-0x20]
  401cf2:	3c 5e                	cmp    al,0x5e
  401cf4:	77 da                	ja     401cd0 <asciidump+0xc0>
  401cf6:	be be 32 40 00       	mov    esi,0x4032be
  401cfb:	bf 01 00 00 00       	mov    edi,0x1
  401d00:	31 c0                	xor    eax,eax
  401d02:	e8 89 f3 ff ff       	call   401090 <dprintf@plt>
  401d07:	48 83 c3 01          	add    rbx,0x1
  401d0b:	49 39 dd             	cmp    r13,rbx
  401d0e:	75 da                	jne    401cea <asciidump+0xda>
  401d10:	be e2 31 40 00       	mov    esi,0x4031e2
  401d15:	bf 01 00 00 00       	mov    edi,0x1
  401d1a:	31 c0                	xor    eax,eax
  401d1c:	48 83 c4 08          	add    rsp,0x8
  401d20:	5b                   	pop    rbx
  401d21:	41 5c                	pop    r12
  401d23:	41 5d                	pop    r13
  401d25:	41 5e                	pop    r14
  401d27:	41 5f                	pop    r15
  401d29:	5d                   	pop    rbp
  401d2a:	e9 61 f3 ff ff       	jmp    401090 <dprintf@plt>
  401d2f:	90                   	nop

0000000000401d30 <print_elf_header>:
  401d30:	41 56                	push   r14
  401d32:	53                   	push   rbx
  401d33:	50                   	push   rax
  401d34:	48 89 fb             	mov    rbx,rdi
  401d37:	0f b6 37             	movzx  esi,BYTE PTR [rdi]
  401d3a:	0f b6 57 01          	movzx  edx,BYTE PTR [rdi+0x1]
  401d3e:	0f b6 4f 02          	movzx  ecx,BYTE PTR [rdi+0x2]
  401d42:	44 0f b6 47 03       	movzx  r8d,BYTE PTR [rdi+0x3]
  401d47:	bf c3 32 40 00       	mov    edi,0x4032c3
  401d4c:	31 c0                	xor    eax,eax
  401d4e:	e8 1d f3 ff ff       	call   401070 <printf@plt>
  401d53:	0f b6 73 04          	movzx  esi,BYTE PTR [rbx+0x4]
  401d57:	bf e1 32 40 00       	mov    edi,0x4032e1
  401d5c:	31 c0                	xor    eax,eax
  401d5e:	e8 0d f3 ff ff       	call   401070 <printf@plt>
  401d63:	8a 43 04             	mov    al,BYTE PTR [rbx+0x4]
  401d66:	3c 02                	cmp    al,0x2
  401d68:	b9 99 35 40 00       	mov    ecx,0x403599
  401d6d:	41 be ca 35 40 00    	mov    r14d,0x4035ca
  401d73:	49 0f 45 ce          	cmovne rcx,r14
  401d77:	3c 01                	cmp    al,0x1
  401d79:	bf c2 35 40 00       	mov    edi,0x4035c2
  401d7e:	48 0f 45 f9          	cmovne rdi,rcx
  401d82:	e8 c9 f2 ff ff       	call   401050 <puts@plt>
  401d87:	0f b6 73 05          	movzx  esi,BYTE PTR [rbx+0x5]
  401d8b:	bf f2 32 40 00       	mov    edi,0x4032f2
  401d90:	31 c0                	xor    eax,eax
  401d92:	e8 d9 f2 ff ff       	call   401070 <printf@plt>
  401d97:	8a 43 05             	mov    al,BYTE PTR [rbx+0x5]
  401d9a:	3c 02                	cmp    al,0x2
  401d9c:	b9 a1 35 40 00       	mov    ecx,0x4035a1
  401da1:	49 0f 45 ce          	cmovne rcx,r14
  401da5:	3c 01                	cmp    al,0x1
  401da7:	bf b0 35 40 00       	mov    edi,0x4035b0
  401dac:	48 0f 45 f9          	cmovne rdi,rcx
  401db0:	e8 9b f2 ff ff       	call   401050 <puts@plt>
  401db5:	8b 73 14             	mov    esi,DWORD PTR [rbx+0x14]
  401db8:	bf 04 33 40 00       	mov    edi,0x403304
  401dbd:	31 c0                	xor    eax,eax
  401dbf:	e8 ac f2 ff ff       	call   401070 <printf@plt>
  401dc4:	0f b6 73 07          	movzx  esi,BYTE PTR [rbx+0x7]
  401dc8:	bf 15 33 40 00       	mov    edi,0x403315
  401dcd:	31 c0                	xor    eax,eax
  401dcf:	e8 9c f2 ff ff       	call   401070 <printf@plt>
  401dd4:	0f b7 73 10          	movzx  esi,WORD PTR [rbx+0x10]
  401dd8:	bf 25 33 40 00       	mov    edi,0x403325
  401ddd:	31 c0                	xor    eax,eax
  401ddf:	e8 8c f2 ff ff       	call   401070 <printf@plt>
  401de4:	0f b7 73 12          	movzx  esi,WORD PTR [rbx+0x12]
  401de8:	bf 33 33 40 00       	mov    edi,0x403333
  401ded:	31 c0                	xor    eax,eax
  401def:	e8 7c f2 ff ff       	call   401070 <printf@plt>
  401df4:	8b 73 14             	mov    esi,DWORD PTR [rbx+0x14]
  401df7:	bf 44 33 40 00       	mov    edi,0x403344
  401dfc:	31 c0                	xor    eax,eax
  401dfe:	e8 6d f2 ff ff       	call   401070 <printf@plt>
  401e03:	48 8b 73 18          	mov    rsi,QWORD PTR [rbx+0x18]
  401e07:	bf 55 33 40 00       	mov    edi,0x403355
  401e0c:	31 c0                	xor    eax,eax
  401e0e:	e8 5d f2 ff ff       	call   401070 <printf@plt>
  401e13:	48 8b 73 20          	mov    rsi,QWORD PTR [rbx+0x20]
  401e17:	bf 6c 33 40 00       	mov    edi,0x40336c
  401e1c:	31 c0                	xor    eax,eax
  401e1e:	e8 4d f2 ff ff       	call   401070 <printf@plt>
  401e23:	48 8b 73 28          	mov    rsi,QWORD PTR [rbx+0x28]
  401e27:	bf 8b 33 40 00       	mov    edi,0x40338b
  401e2c:	31 c0                	xor    eax,eax
  401e2e:	e8 3d f2 ff ff       	call   401070 <printf@plt>
  401e33:	8b 73 30             	mov    esi,DWORD PTR [rbx+0x30]
  401e36:	bf ac 33 40 00       	mov    edi,0x4033ac
  401e3b:	31 c0                	xor    eax,eax
  401e3d:	e8 2e f2 ff ff       	call   401070 <printf@plt>
  401e42:	0f b7 73 34          	movzx  esi,WORD PTR [rbx+0x34]
  401e46:	bf bb 33 40 00       	mov    edi,0x4033bb
  401e4b:	31 c0                	xor    eax,eax
  401e4d:	e8 1e f2 ff ff       	call   401070 <printf@plt>
  401e52:	0f b7 73 36          	movzx  esi,WORD PTR [rbx+0x36]
  401e56:	bf d0 33 40 00       	mov    edi,0x4033d0
  401e5b:	31 c0                	xor    eax,eax
  401e5d:	e8 0e f2 ff ff       	call   401070 <printf@plt>
  401e62:	0f b7 73 38          	movzx  esi,WORD PTR [rbx+0x38]
  401e66:	bf eb 33 40 00       	mov    edi,0x4033eb
  401e6b:	31 c0                	xor    eax,eax
  401e6d:	e8 fe f1 ff ff       	call   401070 <printf@plt>
  401e72:	0f b7 73 3a          	movzx  esi,WORD PTR [rbx+0x3a]
  401e76:	bf 07 34 40 00       	mov    edi,0x403407
  401e7b:	31 c0                	xor    eax,eax
  401e7d:	e8 ee f1 ff ff       	call   401070 <printf@plt>
  401e82:	0f b7 73 3c          	movzx  esi,WORD PTR [rbx+0x3c]
  401e86:	bf 23 34 40 00       	mov    edi,0x403423
  401e8b:	31 c0                	xor    eax,eax
  401e8d:	e8 de f1 ff ff       	call   401070 <printf@plt>
  401e92:	0f b7 73 3e          	movzx  esi,WORD PTR [rbx+0x3e]
  401e96:	bf 40 34 40 00       	mov    edi,0x403440
  401e9b:	31 c0                	xor    eax,eax
  401e9d:	48 83 c4 08          	add    rsp,0x8
  401ea1:	5b                   	pop    rbx
  401ea2:	41 5e                	pop    r14
  401ea4:	e9 c7 f1 ff ff       	jmp    401070 <printf@plt>
  401ea9:	0f 1f 80 00 00 00 00 	nop    DWORD PTR [rax+0x0]

0000000000401eb0 <hangup>:
  401eb0:	50                   	push   rax
  401eb1:	48 8d 74 24 07       	lea    rsi,[rsp+0x7]
  401eb6:	ba 01 00 00 00       	mov    edx,0x1
  401ebb:	bf 01 00 00 00       	mov    edi,0x1
  401ec0:	e8 db f1 ff ff       	call   4010a0 <read@plt>
  401ec5:	58                   	pop    rax
  401ec6:	c3                   	ret    
  401ec7:	66 0f 1f 84 00 00 00 	nop    WORD PTR [rax+rax*1+0x0]
  401ece:	00 00 

0000000000401ed0 <type_program_to_str>:
  401ed0:	83 ff 08             	cmp    edi,0x8
  401ed3:	77 14                	ja     401ee9 <type_program_to_str+0x19>
  401ed5:	b8 5d 34 40 00       	mov    eax,0x40345d
  401eda:	89 f9                	mov    ecx,edi
  401edc:	ff 24 cd e8 31 40 00 	jmp    QWORD PTR [rcx*8+0x4031e8]
  401ee3:	b8 65 34 40 00       	mov    eax,0x403465
  401ee8:	c3                   	ret    
  401ee9:	8d 87 b0 1a 8b 9b    	lea    eax,[rdi-0x6474e550]
  401eef:	83 f8 03             	cmp    eax,0x3
  401ef2:	77 0d                	ja     401f01 <type_program_to_str+0x31>
  401ef4:	ff 24 c5 30 32 40 00 	jmp    QWORD PTR [rax*8+0x403230]
  401efb:	b8 b1 34 40 00       	mov    eax,0x4034b1
  401f00:	c3                   	ret    
  401f01:	81 ff 00 00 00 60    	cmp    edi,0x60000000
  401f07:	75 42                	jne    401f4b <type_program_to_str+0x7b>
  401f09:	b8 a9 34 40 00       	mov    eax,0x4034a9
  401f0e:	c3                   	ret    
  401f0f:	b8 6d 34 40 00       	mov    eax,0x40346d
  401f14:	c3                   	ret    
  401f15:	b8 78 34 40 00       	mov    eax,0x403478
  401f1a:	c3                   	ret    
  401f1b:	b8 82 34 40 00       	mov    eax,0x403482
  401f20:	c3                   	ret    
  401f21:	b8 8a 34 40 00       	mov    eax,0x40348a
  401f26:	c3                   	ret    
  401f27:	b8 93 34 40 00       	mov    eax,0x403493
  401f2c:	c3                   	ret    
  401f2d:	b8 9b 34 40 00       	mov    eax,0x40349b
  401f32:	c3                   	ret    
  401f33:	b8 a2 34 40 00       	mov    eax,0x4034a2
  401f38:	c3                   	ret    
  401f39:	b8 c1 34 40 00       	mov    eax,0x4034c1
  401f3e:	c3                   	ret    
  401f3f:	b8 ce 34 40 00       	mov    eax,0x4034ce
  401f44:	c3                   	ret    
  401f45:	b8 db 34 40 00       	mov    eax,0x4034db
  401f4a:	c3                   	ret    
  401f4b:	b8 e5 34 40 00       	mov    eax,0x4034e5
  401f50:	c3                   	ret    
  401f51:	66 2e 0f 1f 84 00 00 	cs nop WORD PTR [rax+rax*1+0x0]
  401f58:	00 00 00 
  401f5b:	0f 1f 44 00 00       	nop    DWORD PTR [rax+rax*1+0x0]

0000000000401f60 <print_program_headers>:
  401f60:	53                   	push   rbx
  401f61:	48 85 ff             	test   rdi,rdi
  401f64:	0f 84 c7 01 00 00    	je     402131 <print_program_headers+0x1d1>
  401f6a:	48 89 fb             	mov    rbx,rdi
  401f6d:	e9 8e 00 00 00       	jmp    402000 <print_program_headers+0xa0>
  401f72:	66 2e 0f 1f 84 00 00 	cs nop WORD PTR [rax+rax*1+0x0]
  401f79:	00 00 00 
  401f7c:	0f 1f 40 00          	nop    DWORD PTR [rax+0x0]
  401f80:	bf 0a 00 00 00       	mov    edi,0xa
  401f85:	e8 b6 f0 ff ff       	call   401040 <putchar@plt>
  401f8a:	48 8b 03             	mov    rax,QWORD PTR [rbx]
  401f8d:	48 8b 70 08          	mov    rsi,QWORD PTR [rax+0x8]
  401f91:	bf 25 35 40 00       	mov    edi,0x403525
  401f96:	31 c0                	xor    eax,eax
  401f98:	e8 d3 f0 ff ff       	call   401070 <printf@plt>
  401f9d:	48 8b 03             	mov    rax,QWORD PTR [rbx]
  401fa0:	48 8b 70 10          	mov    rsi,QWORD PTR [rax+0x10]
  401fa4:	bf 37 35 40 00       	mov    edi,0x403537
  401fa9:	31 c0                	xor    eax,eax
  401fab:	e8 c0 f0 ff ff       	call   401070 <printf@plt>
  401fb0:	48 8b 03             	mov    rax,QWORD PTR [rbx]
  401fb3:	48 8b 70 20          	mov    rsi,QWORD PTR [rax+0x20]
  401fb7:	bf 52 35 40 00       	mov    edi,0x403552
  401fbc:	31 c0                	xor    eax,eax
  401fbe:	e8 ad f0 ff ff       	call   401070 <printf@plt>
  401fc3:	48 8b 03             	mov    rax,QWORD PTR [rbx]
  401fc6:	48 8b 70 28          	mov    rsi,QWORD PTR [rax+0x28]
  401fca:	bf 6a 35 40 00       	mov    edi,0x40356a
  401fcf:	31 c0                	xor    eax,eax
  401fd1:	e8 9a f0 ff ff       	call   401070 <printf@plt>
  401fd6:	48 8b 03             	mov    rax,QWORD PTR [rbx]
  401fd9:	48 8b 70 30          	mov    rsi,QWORD PTR [rax+0x30]
  401fdd:	bf 84 35 40 00       	mov    edi,0x403584
  401fe2:	31 c0                	xor    eax,eax
  401fe4:	e8 87 f0 ff ff       	call   401070 <printf@plt>
  401fe9:	bf 0a 00 00 00       	mov    edi,0xa
  401fee:	e8 4d f0 ff ff       	call   401040 <putchar@plt>
  401ff3:	48 8b 5b 08          	mov    rbx,QWORD PTR [rbx+0x8]
  401ff7:	48 85 db             	test   rbx,rbx
  401ffa:	0f 84 31 01 00 00    	je     402131 <print_program_headers+0x1d1>
  402000:	48 8b 03             	mov    rax,QWORD PTR [rbx]
  402003:	83 38 01             	cmp    DWORD PTR [rax],0x1
  402006:	75 eb                	jne    401ff3 <print_program_headers+0x93>
  402008:	bf f2 34 40 00       	mov    edi,0x4034f2
  40200d:	be 01 00 00 00       	mov    esi,0x1
  402012:	31 c0                	xor    eax,eax
  402014:	e8 57 f0 ff ff       	call   401070 <printf@plt>
  402019:	48 8b 03             	mov    rax,QWORD PTR [rbx]
  40201c:	8b 00                	mov    eax,DWORD PTR [rax]
  40201e:	48 83 f8 08          	cmp    rax,0x8
  402022:	77 1c                	ja     402040 <print_program_headers+0xe0>
  402024:	bf 5d 34 40 00       	mov    edi,0x40345d
  402029:	ff 24 c5 50 32 40 00 	jmp    QWORD PTR [rax*8+0x403250]
  402030:	bf 65 34 40 00       	mov    edi,0x403465
  402035:	e9 86 00 00 00       	jmp    4020c0 <print_program_headers+0x160>
  40203a:	66 0f 1f 44 00 00    	nop    WORD PTR [rax+rax*1+0x0]
  402040:	8d 88 b0 1a 8b 9b    	lea    ecx,[rax-0x6474e550]
  402046:	83 f9 03             	cmp    ecx,0x3
  402049:	77 0e                	ja     402059 <print_program_headers+0xf9>
  40204b:	ff 24 cd 98 32 40 00 	jmp    QWORD PTR [rcx*8+0x403298]
  402052:	bf b1 34 40 00       	mov    edi,0x4034b1
  402057:	eb 67                	jmp    4020c0 <print_program_headers+0x160>
  402059:	3d 00 00 00 60       	cmp    eax,0x60000000
  40205e:	75 4d                	jne    4020ad <print_program_headers+0x14d>
  402060:	bf a9 34 40 00       	mov    edi,0x4034a9
  402065:	eb 59                	jmp    4020c0 <print_program_headers+0x160>
  402067:	bf 6d 34 40 00       	mov    edi,0x40346d
  40206c:	eb 52                	jmp    4020c0 <print_program_headers+0x160>
  40206e:	bf 78 34 40 00       	mov    edi,0x403478
  402073:	eb 4b                	jmp    4020c0 <print_program_headers+0x160>
  402075:	bf 82 34 40 00       	mov    edi,0x403482
  40207a:	eb 44                	jmp    4020c0 <print_program_headers+0x160>
  40207c:	bf 8a 34 40 00       	mov    edi,0x40348a
  402081:	eb 3d                	jmp    4020c0 <print_program_headers+0x160>
  402083:	bf 93 34 40 00       	mov    edi,0x403493
  402088:	eb 36                	jmp    4020c0 <print_program_headers+0x160>
  40208a:	bf 9b 34 40 00       	mov    edi,0x40349b
  40208f:	eb 2f                	jmp    4020c0 <print_program_headers+0x160>
  402091:	bf a2 34 40 00       	mov    edi,0x4034a2
  402096:	eb 28                	jmp    4020c0 <print_program_headers+0x160>
  402098:	bf c1 34 40 00       	mov    edi,0x4034c1
  40209d:	eb 21                	jmp    4020c0 <print_program_headers+0x160>
  40209f:	bf ce 34 40 00       	mov    edi,0x4034ce
  4020a4:	eb 1a                	jmp    4020c0 <print_program_headers+0x160>
  4020a6:	bf db 34 40 00       	mov    edi,0x4034db
  4020ab:	eb 13                	jmp    4020c0 <print_program_headers+0x160>
  4020ad:	bf e5 34 40 00       	mov    edi,0x4034e5
  4020b2:	66 2e 0f 1f 84 00 00 	cs nop WORD PTR [rax+rax*1+0x0]
  4020b9:	00 00 00 
  4020bc:	0f 1f 40 00          	nop    DWORD PTR [rax+0x0]
  4020c0:	e8 8b ef ff ff       	call   401050 <puts@plt>
  4020c5:	48 8b 03             	mov    rax,QWORD PTR [rbx]
  4020c8:	8b 70 04             	mov    esi,DWORD PTR [rax+0x4]
  4020cb:	bf 02 35 40 00       	mov    edi,0x403502
  4020d0:	31 c0                	xor    eax,eax
  4020d2:	e8 99 ef ff ff       	call   401070 <printf@plt>
  4020d7:	48 8b 03             	mov    rax,QWORD PTR [rbx]
  4020da:	8b 40 04             	mov    eax,DWORD PTR [rax+0x4]
  4020dd:	a8 04                	test   al,0x4
  4020df:	75 0f                	jne    4020f0 <print_program_headers+0x190>
  4020e1:	a8 02                	test   al,0x2
  4020e3:	75 21                	jne    402106 <print_program_headers+0x1a6>
  4020e5:	a8 01                	test   al,0x1
  4020e7:	0f 84 93 fe ff ff    	je     401f80 <print_program_headers+0x20>
  4020ed:	eb 31                	jmp    402120 <print_program_headers+0x1c0>
  4020ef:	90                   	nop
  4020f0:	bf 13 35 40 00       	mov    edi,0x403513
  4020f5:	31 c0                	xor    eax,eax
  4020f7:	e8 74 ef ff ff       	call   401070 <printf@plt>
  4020fc:	48 8b 03             	mov    rax,QWORD PTR [rbx]
  4020ff:	8b 40 04             	mov    eax,DWORD PTR [rax+0x4]
  402102:	a8 02                	test   al,0x2
  402104:	74 df                	je     4020e5 <print_program_headers+0x185>
  402106:	bf 19 35 40 00       	mov    edi,0x403519
  40210b:	31 c0                	xor    eax,eax
  40210d:	e8 5e ef ff ff       	call   401070 <printf@plt>
  402112:	48 8b 03             	mov    rax,QWORD PTR [rbx]
  402115:	8b 40 04             	mov    eax,DWORD PTR [rax+0x4]
  402118:	a8 01                	test   al,0x1
  40211a:	0f 84 60 fe ff ff    	je     401f80 <print_program_headers+0x20>
  402120:	bf 1f 35 40 00       	mov    edi,0x40351f
  402125:	31 c0                	xor    eax,eax
  402127:	e8 44 ef ff ff       	call   401070 <printf@plt>
  40212c:	e9 4f fe ff ff       	jmp    401f80 <print_program_headers+0x20>
  402131:	5b                   	pop    rbx
  402132:	c3                   	ret    
  402133:	66 2e 0f 1f 84 00 00 	cs nop WORD PTR [rax+rax*1+0x0]
  40213a:	00 00 00 
  40213d:	0f 1f 00             	nop    DWORD PTR [rax]

0000000000402140 <craft_payload>:
  402140:	41 57                	push   r15
  402142:	41 56                	push   r14
  402144:	41 55                	push   r13
  402146:	41 54                	push   r12
  402148:	53                   	push   rbx
  402149:	49 89 ff             	mov    r15,rdi
  40214c:	48 8b 7f 38          	mov    rdi,QWORD PTR [rdi+0x38]
  402150:	be b0 19 40 00       	mov    esi,0x4019b0
  402155:	e8 06 f8 ff ff       	call   401960 <get_segment>
  40215a:	49 89 c6             	mov    r14,rax
  40215d:	4d 8b 67 28          	mov    r12,QWORD PTR [r15+0x28]
  402161:	4d 8d ac 24 85 00 00 	lea    r13,[r12+0x85]
  402168:	00 
  402169:	4c 89 ef             	mov    rdi,r13
  40216c:	e8 5f ef ff ff       	call   4010d0 <malloc@plt>
  402171:	48 89 c3             	mov    rbx,rax
  402174:	49 89 47 10          	mov    QWORD PTR [r15+0x10],rax
  402178:	0f 28 05 21 2f 00 00 	movaps xmm0,XMMWORD PTR [rip+0x2f21]        # 4050a0 <blueprint_payload>
  40217f:	0f 11 00             	movups XMMWORD PTR [rax],xmm0
  402182:	0f 28 05 27 2f 00 00 	movaps xmm0,XMMWORD PTR [rip+0x2f27]        # 4050b0 <blueprint_payload+0x10>
  402189:	0f 11 40 10          	movups XMMWORD PTR [rax+0x10],xmm0
  40218d:	0f 28 05 2c 2f 00 00 	movaps xmm0,XMMWORD PTR [rip+0x2f2c]        # 4050c0 <blueprint_payload+0x20>
  402194:	0f 11 40 20          	movups XMMWORD PTR [rax+0x20],xmm0
  402198:	0f 28 05 31 2f 00 00 	movaps xmm0,XMMWORD PTR [rip+0x2f31]        # 4050d0 <blueprint_payload+0x30>
  40219f:	0f 11 40 30          	movups XMMWORD PTR [rax+0x30],xmm0
  4021a3:	0f 28 05 36 2f 00 00 	movaps xmm0,XMMWORD PTR [rip+0x2f36]        # 4050e0 <blueprint_payload+0x40>
  4021aa:	0f 11 40 40          	movups XMMWORD PTR [rax+0x40],xmm0
  4021ae:	8a 05 3c 2f 00 00    	mov    al,BYTE PTR [rip+0x2f3c]        # 4050f0 <blueprint_payload+0x50>
  4021b4:	88 43 50             	mov    BYTE PTR [rbx+0x50],al
  4021b7:	48 8d 7b 51          	lea    rdi,[rbx+0x51]
  4021bb:	49 8b 77 20          	mov    rsi,QWORD PTR [r15+0x20]
  4021bf:	4c 89 e2             	mov    rdx,r12
  4021c2:	e8 f9 ee ff ff       	call   4010c0 <memcpy@plt>
  4021c7:	8b 05 63 2f 00 00    	mov    eax,DWORD PTR [rip+0x2f63]        # 405130 <decrypt_fn+0x30>
  4021cd:	42 89 84 23 81 00 00 	mov    DWORD PTR [rbx+r12*1+0x81],eax
  4021d4:	00 
  4021d5:	0f 28 05 44 2f 00 00 	movaps xmm0,XMMWORD PTR [rip+0x2f44]        # 405120 <decrypt_fn+0x20>
  4021dc:	42 0f 11 44 23 71    	movups XMMWORD PTR [rbx+r12*1+0x71],xmm0
  4021e2:	0f 28 05 27 2f 00 00 	movaps xmm0,XMMWORD PTR [rip+0x2f27]        # 405110 <decrypt_fn+0x10>
  4021e9:	42 0f 11 44 23 61    	movups XMMWORD PTR [rbx+r12*1+0x61],xmm0
  4021ef:	0f 28 05 0a 2f 00 00 	movaps xmm0,XMMWORD PTR [rip+0x2f0a]        # 405100 <decrypt_fn>
  4021f6:	42 0f 11 44 23 51    	movups XMMWORD PTR [rbx+r12*1+0x51],xmm0
  4021fc:	4d 89 6f 18          	mov    QWORD PTR [r15+0x18],r13
  402200:	49 8b 47 30          	mov    rax,QWORD PTR [r15+0x30]
  402204:	8b 40 18             	mov    eax,DWORD PTR [rax+0x18]
  402207:	41 8b 4e 28          	mov    ecx,DWORD PTR [r14+0x28]
  40220b:	8d 4c 01 51          	lea    ecx,[rcx+rax*1+0x51]
  40220f:	89 4b 2b             	mov    DWORD PTR [rbx+0x2b],ecx
  402212:	44 89 63 30          	mov    DWORD PTR [rbx+0x30],r12d
  402216:	89 43 37             	mov    DWORD PTR [rbx+0x37],eax
  402219:	41 8b 4e 20          	mov    ecx,DWORD PTR [r14+0x20]
  40221d:	89 4b 3c             	mov    DWORD PTR [rbx+0x3c],ecx
  402220:	c7 43 48 25 00 00 00 	mov    DWORD PTR [rbx+0x48],0x25
  402227:	89 43 4d             	mov    DWORD PTR [rbx+0x4d],eax
  40222a:	4c 89 ff             	mov    rdi,r15
  40222d:	e8 0e 00 00 00       	call   402240 <print_info_payload>
  402232:	31 c0                	xor    eax,eax
  402234:	5b                   	pop    rbx
  402235:	41 5c                	pop    r12
  402237:	41 5d                	pop    r13
  402239:	41 5e                	pop    r14
  40223b:	41 5f                	pop    r15
  40223d:	c3                   	ret    
  40223e:	66 90                	xchg   ax,ax

0000000000402240 <print_info_payload>:
  402240:	53                   	push   rbx
  402241:	48 89 fb             	mov    rbx,rdi
  402244:	48 8b 7f 10          	mov    rdi,QWORD PTR [rdi+0x10]
  402248:	48 8b 43 30          	mov    rax,QWORD PTR [rbx+0x30]
  40224c:	48 83 c7 2b          	add    rdi,0x2b
  402250:	0f b6 70 05          	movzx  esi,BYTE PTR [rax+0x5]
  402254:	e8 27 01 00 00       	call   402380 <get_uint32>
  402259:	bf d2 35 40 00       	mov    edi,0x4035d2
  40225e:	89 c6                	mov    esi,eax
  402260:	31 c0                	xor    eax,eax
  402262:	e8 09 ee ff ff       	call   401070 <printf@plt>
  402267:	48 8b 7b 10          	mov    rdi,QWORD PTR [rbx+0x10]
  40226b:	48 8b 43 30          	mov    rax,QWORD PTR [rbx+0x30]
  40226f:	48 83 c7 30          	add    rdi,0x30
  402273:	0f b6 70 05          	movzx  esi,BYTE PTR [rax+0x5]
  402277:	e8 04 01 00 00       	call   402380 <get_uint32>
  40227c:	bf ec 35 40 00       	mov    edi,0x4035ec
  402281:	89 c6                	mov    esi,eax
  402283:	31 c0                	xor    eax,eax
  402285:	e8 e6 ed ff ff       	call   401070 <printf@plt>
  40228a:	48 8b 7b 10          	mov    rdi,QWORD PTR [rbx+0x10]
  40228e:	48 8b 43 30          	mov    rax,QWORD PTR [rbx+0x30]
  402292:	48 83 c7 37          	add    rdi,0x37
  402296:	0f b6 70 05          	movzx  esi,BYTE PTR [rax+0x5]
  40229a:	e8 e1 00 00 00       	call   402380 <get_uint32>
  40229f:	bf 06 36 40 00       	mov    edi,0x403606
  4022a4:	89 c6                	mov    esi,eax
  4022a6:	31 c0                	xor    eax,eax
  4022a8:	e8 c3 ed ff ff       	call   401070 <printf@plt>
  4022ad:	48 8b 7b 10          	mov    rdi,QWORD PTR [rbx+0x10]
  4022b1:	48 8b 43 30          	mov    rax,QWORD PTR [rbx+0x30]
  4022b5:	48 83 c7 3c          	add    rdi,0x3c
  4022b9:	0f b6 70 05          	movzx  esi,BYTE PTR [rax+0x5]
  4022bd:	e8 be 00 00 00       	call   402380 <get_uint32>
  4022c2:	bf 21 36 40 00       	mov    edi,0x403621
  4022c7:	89 c6                	mov    esi,eax
  4022c9:	31 c0                	xor    eax,eax
  4022cb:	e8 a0 ed ff ff       	call   401070 <printf@plt>
  4022d0:	bf 3c 36 40 00       	mov    edi,0x40363c
  4022d5:	e8 76 ed ff ff       	call   401050 <puts@plt>
  4022da:	48 8b 7b 10          	mov    rdi,QWORD PTR [rbx+0x10]
  4022de:	be 51 00 00 00       	mov    esi,0x51
  4022e3:	31 d2                	xor    edx,edx
  4022e5:	e8 66 f8 ff ff       	call   401b50 <hexdump>
  4022ea:	bf 4e 36 40 00       	mov    edi,0x40364e
  4022ef:	e8 5c ed ff ff       	call   401050 <puts@plt>
  4022f4:	48 8b 7b 10          	mov    rdi,QWORD PTR [rbx+0x10]
  4022f8:	48 8b 73 28          	mov    rsi,QWORD PTR [rbx+0x28]
  4022fc:	48 83 c7 51          	add    rdi,0x51
  402300:	31 d2                	xor    edx,edx
  402302:	e8 49 f8 ff ff       	call   401b50 <hexdump>
  402307:	bf 5c 36 40 00       	mov    edi,0x40365c
  40230c:	e8 3f ed ff ff       	call   401050 <puts@plt>
  402311:	48 8b 43 10          	mov    rax,QWORD PTR [rbx+0x10]
  402315:	48 8b 4b 28          	mov    rcx,QWORD PTR [rbx+0x28]
  402319:	48 8d 3c 08          	lea    rdi,[rax+rcx*1]
  40231d:	48 83 c7 51          	add    rdi,0x51
  402321:	be 34 00 00 00       	mov    esi,0x34
  402326:	31 d2                	xor    edx,edx
  402328:	e8 23 f8 ff ff       	call   401b50 <hexdump>
  40232d:	bf 71 36 40 00       	mov    edi,0x403671
  402332:	e8 19 ed ff ff       	call   401050 <puts@plt>
  402337:	48 8b 7b 10          	mov    rdi,QWORD PTR [rbx+0x10]
  40233b:	48 8b 73 18          	mov    rsi,QWORD PTR [rbx+0x18]
  40233f:	31 d2                	xor    edx,edx
  402341:	5b                   	pop    rbx
  402342:	e9 09 f8 ff ff       	jmp    401b50 <hexdump>
  402347:	66 0f 1f 84 00 00 00 	nop    WORD PTR [rax+rax*1+0x0]
  40234e:	00 00 

0000000000402350 <get_uint8>:
  402350:	31 c0                	xor    eax,eax
  402352:	40 80 fe 01          	cmp    sil,0x1
  402356:	b9 07 00 00 00       	mov    ecx,0x7
  40235b:	48 0f 44 c8          	cmove  rcx,rax
  40235f:	8a 04 0f             	mov    al,BYTE PTR [rdi+rcx*1]
  402362:	c3                   	ret    
  402363:	66 2e 0f 1f 84 00 00 	cs nop WORD PTR [rax+rax*1+0x0]
  40236a:	00 00 00 
  40236d:	0f 1f 00             	nop    DWORD PTR [rax]

0000000000402370 <get_uint16>:
  402370:	48 8d 47 06          	lea    rax,[rdi+0x6]
  402374:	40 80 fe 01          	cmp    sil,0x1
  402378:	48 0f 44 c7          	cmove  rax,rdi
  40237c:	0f b7 00             	movzx  eax,WORD PTR [rax]
  40237f:	c3                   	ret    

0000000000402380 <get_uint32>:
  402380:	48 8d 47 04          	lea    rax,[rdi+0x4]
  402384:	40 80 fe 01          	cmp    sil,0x1
  402388:	48 0f 44 c7          	cmove  rax,rdi
  40238c:	8b 00                	mov    eax,DWORD PTR [rax]
  40238e:	c3                   	ret    
  40238f:	90                   	nop

0000000000402390 <get_uint64>:
  402390:	48 8b 07             	mov    rax,QWORD PTR [rdi]
  402393:	c3                   	ret    

Disassembly of section .fini:

0000000000402394 <_fini>:
  402394:	f3 0f 1e fa          	endbr64 
  402398:	48 83 ec 08          	sub    rsp,0x8
  40239c:	48 83 c4 08          	add    rsp,0x8
  4023a0:	c3                   	ret    
